(dp1
Vlimited
p2
I2653
sVpardon
p3
I3198
sVresist
p4
I3745
sVchild
p5
I722
sVdesirable
p6
I1180
sVfoul
p7
I1862
sVhath
p8
I2118
sVprotest
p9
I3536
sVnursery
p10
I3062
sVsleep
p11
I4079
sVcontroversial
p12
I960
sVhanging
p13
I2090
sVconsists
p14
I920
sVappetite
p15
I233
sVcaptain
p16
I624
sVhate
p17
I2115
sVaggression
p18
I134
sVforget
p19
I1834
sVrelationships
p20
I3694
sVlooking
p21
I2695
sVvotes
p22
I4791
sVfeeding
p23
I1713
sVchinese
p24
I729
sVgranting
p25
I2015
sVelectricity
p26
I1424
sVcrises
p27
I1033
sVwayne
p28
I4833
sVsweetest
p29
I4393
sVseriously
p30
I3962
sVsteadily
p31
I4238
sVoriginality
p32
I3157
sVwelcome
p33
I4860
sVwhatsoever
p34
I4866
sVlord
p35
I2698
sVimmature
p36
I2272
sVpride
p37
I3466
sVforbidden
p38
I1823
sVnourishes
p39
I3051
sVsaves
p40
I3887
sVrisk
p41
I3806
sVunpopular
p42
I4705
sVcompassion
p43
I843
sVdynamic
p44
I1368
sVblanket
p45
I483
sVrise
p46
I3803
sVsinner
p47
I4058
sVtoday'
p48
I4536
sVshoot
p49
I4015
sVstolen
p50
I4256
sVtools
p51
I4552
sVgratification
p52
I2022
sVgovern
p53
I1996
sVovercomes
p54
I3167
sVaffect
p55
I116
sVwash
p56
I4820
sVbringing
p57
I565
sVcourageous
p58
I995
sVencounter
p59
I1452
sVlook
p60
I2693
sVschool
p61
I3901
sVprize
p62
I3482
sVparrot
p63
I3204
sVholiness
p64
I2182
sVconceive
p65
I865
sVsolution
p66
I4117
sVtube
p67
I4631
sVsolid
p68
I4114
sVwoods
p69
I4932
sVsuccession
p70
I4333
sVswallowed
p71
I4387
sVprovided
p72
I3544
sVshows
p73
I4026
sVups
p74
I4714
sVtriumph
p75
I4611
sVclothes
p76
I782
sVenjoy
p77
I1484
sVforce
p78
I1824
sVleaders
p79
I2581
sVmid
p80
I2853
sVinevitably
p81
I2345
sVtill
p82
I4524
sVwelfare
p83
I4861
sVfeathers
p84
I1707
sVdirect
p85
I1236
sVvaluable
p86
I4738
sVdisciplined
p87
I1252
sVlikely
p88
I2648
sVfabulous
p89
I1636
sVsummer
p90
I4349
sVwriting
p91
I4970
sVfriendships
p92
I1891
sVn
I2972
sVmachines
p93
I2739
sVinanimate
p94
I2308
sVblue
p95
I500
sVemploy
p96
I1448
sVerrors
p97
I1523
sVhide
p98
I2159
sVchrist
p99
I739
sVdeliberate
p100
I1139
sVintegrity
p101
I2404
sVbeaten
p102
I414
sVorchestra
p103
I3144
sVfingers
p104
I1755
sVliberty
p105
I2629
sVreasoning
p106
I3645
sVliberated
p107
I2627
sVsweat
p108
I4388
sVestablishes
p109
I1532
sVconduct
p110
I882
sVchurches
p111
I746
sVnet
p112
I3016
sVincreasing
p113
I2325
sVunfortunate
p114
I4682
sVseeks
p115
I3932
sVshocks
p116
I4012
sVafterward
p117
I130
sVkicked
p118
I2504
sVhero
p119
I2152
sVnotions
p120
I3050
sVhuman
p121
I2219
sVleaning
p122
I2588
sVequals
p123
I1516
sVatoms
p124
I324
sVanthropology
p125
I210
sVmet
p126
I2848
sVprotection
p127
I3534
sVchina
p128
I728
sVpossibility
p129
I3393
sVhumility
p130
I2224
sVactive
p131
I68
sVpath
p132
I3226
sVviolate
p133
I4772
sVdry
p134
I1358
sVkids
p135
I2508
sVdaughter
p136
I1087
sVrests
p137
I3764
sVne'
p138
I2990
sVleaves
p139
I2597
sVchanged
p140
I685
sVapproaches
p141
I249
sVfoolishness
p142
I1818
sVcontroversy
p143
I961
sVcredit
p144
I1025
sVsaint
p145
I3867
sVsmoke
p146
I4098
sVnatures
p147
I2988
sVlonesome
p148
I2688
sVadvantages
p149
I106
sVpoverty
p150
I3406
sVchanges
p151
I686
sVpunishment
p152
I3555
sVmutual
p153
I2966
sVcriticism
p154
I1037
sVgolden
p155
I1983
sVdivide
p156
I1292
sVcampaign
p157
I612
sVidealism
p158
I2242
sVexplained
p159
I1611
sVreagan
p160
I3630
sVphrase
p161
I3300
sVfeelings
p162
I1717
sVbrought
p163
I574
sVpatience
p164
I3228
sVninety
p165
I3028
sVmoral
p166
I2926
sVstern
p167
I4248
sVcounts
p168
I992
sVtotal
p169
I4557
sVlandscape
p170
I2554
sVopponents
p171
I3128
sVpainters
p172
I3188
sVlecture
p173
I2599
sVspoke
p174
I4190
sVarmy
p175
I272
sVagitation
p176
I136
sVchooses
p177
I735
sVcraving
p178
I1012
sVprogram
p179
I3509
sVmusic
p180
I2964
sVasset
p181
I301
sVstrike
p182
I4286
sVsurvive
p183
I4380
sVtype
p184
I4641
sVtell
p185
I4445
sVpreserved
p186
I3449
sVbreathe
p187
I553
sVspeaking
p188
I4165
sVtranquillity
p189
I4582
sVholy
p190
I2184
sVrelax
p191
I3697
sVsuccessful
p192
I4331
sVbrings
p193
I566
sVnaive
p194
I2973
sVwars
p195
I4819
sVaward
p196
I363
sVaware
p197
I364
sVgrief
p198
I2040
sVdogma
p199
I1305
sVtorture
p200
I4556
sVadult
p201
I99
sVexcellent
p202
I1570
sVcontinual
p203
I945
sVorganic
p204
I3148
sVhole
p205
I2178
sVhold
p206
I2175
sVpreserving
p207
I3450
sVsorry
p208
I4138
sVorigin
p209
I3155
sVcircumstances
p210
I750
sVabundance
p211
I20
sVmorally
p212
I2928
sVjoin
p213
I2472
sVlanguage
p214
I2555
sVerr
p215
I1521
sVpermits
p216
I3268
sVpursue
p217
I3564
sVblade
p218
I481
sVreads
p219
I3628
sVentertained
p220
I1502
sVregrets
p221
I3682
sVmovies
p222
I2952
sVera
p223
I1519
sVsweeter
p224
I4392
sVconcepts
p225
I871
sVexceptions
p226
I1572
sVroot
p227
I3827
sVexample
p228
I1565
sVquarrel
p229
I3575
sVmisfortunes
p230
I2886
sVexcuses
p231
I1581
sVtransition
p232
I4585
sVestate
p233
I1534
sVingenuity
p234
I2356
sVunjust
p235
I4696
sVbitterest
p236
I478
sVlaughs
p237
I2568
sVsick
p238
I4030
sVfrighten
p239
I1892
sVindicates
p240
I2332
sVcaution
p241
I654
sVdegenerate
p242
I1135
sVviolin
p243
I4776
sVindifferent
p244
I2334
sVattract
p245
I339
sVadvancing
p246
I104
sVabsolute
p247
I11
sVaging
p248
I135
sVsought
p249
I4141
sVend
p250
I1458
sVthing
p251
I4488
sVcomplaining
p252
I850
sVagony
p253
I138
sVtravel
p254
I4588
sVsong
p255
I4129
sVnuts
p256
I3064
sVdamage
p257
I1071
sVtyrants
p258
I4644
sVmachine
p259
I2737
sVfaults
p260
I1695
sVamazing
p261
I172
sVcures
p262
I1056
sVsilent
p263
I4042
sVtrusted
p264
I4625
sVopposite
p265
I3133
sVsignificance
p266
I4038
sVanswer
p267
I205
sVgate
p268
I1929
sVordinary
p269
I3147
sVbeach
p270
I407
sVvoid
p271
I4788
sVfanaticism
p272
I1676
sVsomebody'
p273
I4123
sVbadly
p274
I378
sVminority
p275
I2873
sVbeauty
p276
I420
sVbelievers
p277
I441
sVinsecure
p278
I2376
sVearlier
p279
I1374
sVloyalty
p280
I2725
sVmultitude
p281
I2956
sVmodest
p282
I2908
sVlay
p283
I2576
sVcuriosity
p284
I1057
sVpresident
p285
I3452
sVlaw
p286
I2571
sVmeaningful
p287
I2808
sVprofess
p288
I3500
sVattempt
p289
I332
sVsplendid
p290
I4186
sVeffective
p291
I1409
sVsets
p292
I3974
sVhasty
p293
I2113
sVwins
p294
I4902
sVattracts
p295
I343
sVappreciate
p296
I244
sVgreet
p297
I2038
sVcapitalism
p298
I623
sVgreek
p299
I2035
sVmaintain
p300
I2748
sVgreen
p301
I2037
sVultimate
p302
I4649
sVgoodbye
p303
I1988
sVenter
p304
I1495
sVsteals
p305
I4241
sVdemocratic
p306
I1154
sVorder
p307
I3145
sVgreed
p308
I2034
sVjack
p309
I2455
sVthirty
p310
I4494
sVemotion
p311
I1442
sVmodesty
p312
I2909
sVlifeless
p313
I2636
sVoffice
p314
I3104
sVdeck
p315
I1113
sVnumbers
p316
I3059
sVdreamed
p317
I1335
sVvary
p318
I4746
sVexpects
p319
I1600
sVjerry
p320
I2460
sVreached
p321
I3620
sVlondon
p322
I2685
sVvastly
p323
I4748
sVsaving
p324
I3888
sVfidelity
p325
I1732
sVwrought
p326
I4975
sVadolescence
p327
I94
sVstrives
p328
I4293
sVfit
p329
I1767
sVhypocrisy
p330
I2236
sVpersonal
p331
I3279
sVfix
p332
I1770
sVstriking
p333
I4288
sVexpectations
p334
I1597
sVcomprehend
p335
I858
sVbetter
p336
I458
sVproduction
p337
I3497
sVthrown
p338
I4512
sVdifferently
p339
I1224
sVfade
p340
I1646
sVpersist
p341
I3274
sVnobler
p342
I3032
sVhidden
p343
I2158
sVadmirable
p344
I88
sVeasier
p345
I1385
sVconfidently
p346
I887
sVsplit
p347
I4188
sVeventually
p348
I1548
sVcoffee
p349
I791
sVreplace
p350
I3726
sVaffected
p351
I117
sVdiseases
p352
I1269
sVcombination
p353
I802
sVenrich
p354
I1492
sVthee
p355
I4480
sVpeoples
p356
I3248
sVbreak
p357
I547
sVband
p358
I385
sVcaterpillar
p359
I648
sVstrongest
p360
I4298
sVeffects
p361
I1410
sVindulge
p362
I2340
sVschools
p363
I3902
sVecho
p364
I1394
sVhumanity
p365
I2220
sVbank
p366
I386
sVbread
p367
I546
sVshadows
p368
I3985
sVgloom
p369
I1969
sVrhetoric
p370
I3786
sVmeat
p371
I2815
sVoxygen
p372
I3176
sVpotatoes
p373
I3399
sVkicking
p374
I2505
sVwilling
p375
I4885
sVl
I2539
sVsuccessfully
p376
I4332
sVgrows
p377
I2051
sVfilling
p378
I1744
sVvictories
p379
I4763
sVvictory
p380
I4765
sVarrow
p381
I277
sVwage
p382
I4795
sVaddicted
p383
I80
sVfeeds
p384
I1714
sVeuropean
p385
I1543
sVloneliness
p386
I2686
sVbone
p387
I515
sVbond
p388
I512
sVwhim
p389
I4870
sVfairly
p390
I1657
sVseries
p391
I3961
sVtold
p392
I4538
sVcrimes
p393
I1031
sVprinciples
p394
I3475
sVvote
p395
I4790
sVliterature
p396
I2671
sVprecedes
p397
I3427
sVforgot
p398
I1842
sVaids
p399
I146
sVdawn
p400
I1088
sVring
p401
I3802
sVtoleration
p402
I4543
sVmisfortune
p403
I2885
sVprecisely
p404
I3430
sVnetwork
p405
I3017
sVdriving
p406
I1350
sVgod
p407
I1976
sVtried
p408
I4607
sVcrucial
p409
I1045
sVlurks
p410
I2731
sVfellows
p411
I1724
sVcontent
p412
I939
sVmethod
p413
I2850
sVencourage
p414
I1454
sVinhabit
p415
I2358
sVadapt
p416
I77
sVmasterpiece
p417
I2788
sVreader
p418
I3625
sVmedicine
p419
I2818
sVday'
p420
I1090
sVmillions
p421
I2865
sVforth
p422
I1854
sVindependence
p423
I2328
sVsmart
p424
I4091
sVfoundation
p425
I1863
sVperception
p426
I3252
sVturning
p427
I4635
sVrest
p428
I3760
sVassured
p429
I314
sVassociate
p430
I304
sVrolled
p431
I3818
sVeternal
p432
I1538
sVlittle
p433
I2672
sVfree
p434
I1878
sVstandard
p435
I4212
sVadmits
p436
I93
sVthieves
p437
I4486
sVmanagement
p438
I2762
sVformation
p439
I1847
sVcensure
p440
I665
sVgrapes
p441
I2017
sVterrorist
p442
I4470
sVestimate
p443
I1536
sVholidays
p444
I2181
sVstorm
p445
I4266
sVmonkey
p446
I2915
sVliberties
p447
I2628
sVenormous
p448
I1490
sVate
p449
I318
sVcreated
p450
I1016
sVstarts
p451
I4223
sVprofessions
p452
I3503
sVmessages
p453
I2847
sVdays
p454
I1091
sVtolerant
p455
I4541
sVcreates
p456
I1017
sVlousy
p457
I2709
sVrenew
p458
I3720
sVoppose
p459
I3131
sVhopeless
p460
I2201
sVunknown
p461
I4698
sVaspire
p462
I295
sVleaps
p463
I2590
sVfellow'
p464
I1723
sVfootsteps
p465
I1822
sVbite
p466
I475
sVsize
p467
I4067
sVslept
p468
I4080
sVnecessity
p469
I2999
sVeconomists
p470
I1398
sVgrade
p471
I2004
sVencouraging
p472
I1457
sVrank
p473
I3610
sVhearing
p474
I2130
sVstaying
p475
I4236
sVfantasy
p476
I1679
sVinstruct
p477
I2398
sVrelations
p478
I3692
sVsober
p479
I4103
sVcomic
p480
I811
sVmagnificent
p481
I2745
sVservice
p482
I3969
sVinfancy
p483
I2346
sVgirls
p484
I1958
sVfiction
p485
I1731
sVneeded
p486
I3002
sVcompromise
p487
I860
sVthoughts
p488
I4500
sVblossoms
p489
I496
sVtea
p490
I4429
sVdwell
p491
I1364
sVhollywood
p492
I2183
sVjohn
p493
I2469
sVbitter
p494
I477
sVdogs
p495
I1306
sVdamaging
p496
I1072
sVlisten
p497
I2663
sVtroubled
p498
I4616
sVmurder
p499
I2957
sVgrandchildren
p500
I2008
sVcentered
p501
I667
sVgriefs
p502
I2041
sVserve
p503
I3966
sVtook
p504
I4550
sVrejected
p505
I3686
sVwisdom
p506
I4905
sVwrapped
p507
I4962
sVtask
p508
I4421
sVwestern
p509
I4864
sVsomewhat
p510
I4127
sVwasted
p511
I4823
sVunsaid
p512
I4708
sVsymptom
p513
I4403
sVbegins
p514
I429
sVdistance
p515
I1282
sVanxiety
p516
I216
sVthousands
p517
I4502
sVtarget
p518
I4420
sVfrankly
p519
I1877
sVelegant
p520
I1426
sVcoward
p521
I1003
sVtree
p522
I4598
sVbitterness
p523
I479
sVnations
p524
I2982
sVpreparation
p525
I3440
sVmatter
p526
I2797
sVidle
p527
I2250
sVclasses
p528
I761
sVflame
p529
I1774
sVendure
p530
I1467
sVhistorical
p531
I2171
sVprofitable
p532
I3506
sVenables
p533
I1451
sVpowers
p534
I3410
sVperspective
p535
I3284
sVbridge
p536
I558
sVfashion
p537
I1684
sVsees
p538
I3934
sVobjects
p539
I3073
sVran
p540
I3607
sVmodern
p541
I2906
sVmind
p542
I2866
sVpigs
p543
I3314
sVspent
p544
I4177
sVraw
p545
I3618
sVpessimist
p546
I3290
sVseed
p547
I3927
sVmanner
p548
I2768
sVseen
p549
I3933
sVsubjects
p550
I4319
sVobviously
p551
I3086
sVseek
p552
I3930
sVtells
p553
I4447
sVdozen
p554
I1322
sVaffairs
p555
I115
sVstrength
p556
I4278
sVgenuine
p557
I1948
sVperson
p558
I3277
sVthoroughly
p559
I4497
sVspan
p560
I4158
sVresponsible
p561
I3759
sVhaste
p562
I2112
sVelegance
p563
I1425
sVsound
p564
I4145
sVchest
p565
I717
sVclient
p566
I768
sVabsorbed
p567
I14
sVamusing
p568
I185
sVdoors
p569
I1314
sVlaughed
p570
I2566
sVshining
p571
I4007
sVexplanation
p572
I1612
sVmachinery
p573
I2738
sVcircles
p574
I748
sVexactly
p575
I1562
sVqualities
p576
I3572
sVestablished
p577
I1531
sVlimitless
p578
I2654
sVquit
p579
I3588
sVtoil
p580
I4537
sVnature'
p581
I2987
sVmouth
p582
I2947
sVnegro
p583
I3007
sVletter
p584
I2618
sVhearts
p585
I2134
sVexercises
p586
I1584
sVproverb
p587
I3541
sVcoin
p588
I792
sVmaterials
p589
I2794
sVgrave
p590
I2024
sVdarkness
p591
I1085
sVgentle
p592
I1944
sVstupid
p593
I4314
sVdon
p594
I1311
sVobservation
p595
I3078
sValarm
p596
I153
sVwitnessed
p597
I4917
sVflow
p598
I1793
sVdog
p599
I1304
sVpossesses
p600
I3388
sVorderly
p601
I3146
sVpoints
p602
I3364
sVsources
p603
I4151
sVprinciple
p604
I3474
sVenterprise
p605
I1498
sVnotion
p606
I3049
sVcame
p607
I610
sVreserve
p608
I3743
sVdiscontent
p609
I1253
sVvulgar
p610
I4793
sVbomb
p611
I511
sVinspire
p612
I2385
sVhunger
p613
I2229
sVmeetings
p614
I2825
sVqueen
p615
I3577
sVsage
p616
I3864
sVaspires
p617
I296
sVending
p618
I1462
sVundue
p619
I4675
sVreligions
p620
I3701
sVattempts
p621
I333
sVshowing
p622
I4024
sVradio
p623
I3599
sVpoison
p624
I3365
sVstepping
p625
I4246
sVfooled
p626
I1816
sVfalsehoods
p627
I1668
sVearth
p628
I1381
sVtempted
p629
I4455
sVenjoyed
p630
I1485
sVwisest
p631
I4909
sVlessons
p632
I2614
sVjudges
p633
I2484
sVbusy
p634
I598
sVdivinity
p635
I1296
sVabsurdities
p636
I18
sVspite
p637
I4185
sVlights
p638
I2645
sVsituations
p639
I4066
sVexplain
p640
I1610
sVjailer
p641
I2457
sVbush
p642
I596
sVbliss
p643
I491
sVdeepest
p644
I1121
sVrich
p645
I3787
sVpursuing
p646
I3566
sVfolks
p647
I1806
sVenslave
p648
I1493
sVadequate
p649
I85
sVpopulation
p650
I3380
sVscripture
p651
I3911
sVpersonality
p652
I3281
sVborrowed
p653
I525
sVplate
p654
I3338
sVmixture
p655
I2898
sVhostility
p656
I2211
sVstop
p657
I4261
sVperceive
p658
I3249
sVleisure
p659
I2607
sVunfair
p660
I4679
sVpocket
p661
I3356
sVspirit
p662
I4180
sValtogether
p663
I170
sVreport
p664
I3730
sVknocks
p665
I2532
sVhappiest
p666
I2096
sVdr
p667
I1323
sVnurse
p668
I3061
sVsocieties
p669
I4106
sVbat
p670
I401
sVbar
p671
I388
sVcountries
p672
I990
sVfields
p673
I1734
sVsour
p674
I4149
sVbay
p675
I406
sVbag
p676
I379
sVbad
p677
I377
sVarchitecture
p678
I256
sVrelease
p679
I3698
sVmen'
p680
I2833
sVsteal
p681
I4240
sVdistinguishes
p682
I1289
sVupwards
p683
I4717
sVears
p684
I1380
sVethical
p685
I1540
sVdecides
p686
I1109
sVdisaster
p687
I1249
sVfair
p688
I1656
sVhabit
p689
I2071
sVimitate
p690
I2270
sVtesting
p691
I4473
sVgladness
p692
I1964
sVobserved
p693
I3080
sVdepends
p694
I1166
sVdecided
p695
I1108
sVresult
p696
I3765
sVcorrupt
p697
I977
sVmiserable
p698
I2882
sVnews
p699
I3020
sVtommy
p700
I4544
sVhammer
p701
I2080
sVyes
p702
I4988
sVbest
p703
I453
sVstruggling
p704
I4303
sVvoyage
p705
I4792
sVsaid
p706
I3865
sVdraws
p707
I1331
sVruns
p708
I3846
sVambitions
p709
I175
sVlots
p710
I2707
sVrare
p711
I3612
sVaway
p712
I366
sVsail
p713
I3866
sVgentleman
p714
I1945
sVartificial
p715
I280
sVcontinually
p716
I946
sVgrandmother
p717
I2011
sVmud
p718
I2955
sVfuture
p719
I1917
sVdiscovers
p720
I1262
sVcooperation
p721
I972
sVsimplest
p722
I4048
sVdrawn
p723
I1330
sVsorts
p724
I4140
sVvices
p725
I4759
sVapproach
p726
I248
sVdiscovery
p727
I1263
sVpreserve
p728
I3448
sVletting
p729
I2620
sVaccord
p730
I42
sVmen
p731
I2832
sVterms
p732
I4464
sVwears
p733
I4846
sVextend
p734
I1620
sVnature
p735
I2986
sVpurity
p736
I3560
sVconfusion
p737
I895
sVfruits
p738
I1899
sVweak
p739
I4835
sVignorance
p740
I2252
sVreligious
p741
I3702
sVboss
p742
I527
sVsticking
p743
I4250
sVharvard
p744
I2109
sVdevout
p745
I1212
sVchances
p746
I683
sVflashes
p747
I1777
sVdedication
p748
I1116
sVmiser
p749
I2881
sVmotto
p750
I2942
sVdebt
p751
I1100
sVimprove
p752
I2298
sVfaced
p753
I1638
sVreceived
p754
I3650
sVessentially
p755
I1528
sVaccident
p756
I31
sVcow
p757
I1002
sVrefinement
p758
I3666
sVcountry
p759
I991
sVill
p760
I2256
sVconclusions
p761
I876
sVadventures
p762
I108
sVdemanded
p763
I1151
sVgotten
p764
I1995
sVplayers
p765
I3342
sVnegative
p766
I3005
sVgames
p767
I1924
sVdevotion
p768
I1211
sVreceives
p769
I3651
sVfaces
p770
I1639
sVdistinction
p771
I1284
sVsunshine
p772
I4355
sVargue
p773
I259
sVdisappears
p774
I1246
sVasked
p775
I287
sVpursuit
p776
I3567
sVsuggest
p777
I4344
sVskill
p778
I4070
sVundone
p779
I4674
sVtough
p780
I4563
sVappeared
p781
I231
sVlegs
p782
I2606
sVirresponsible
p783
I2449
sVvast
p784
I4747
sVepidemic
p785
I1511
sVheight
p786
I2141
sVwhisper
p787
I4871
sVhast
p788
I2111
sVlick
p789
I2631
sVinitiative
p790
I2362
sVcomprehension
p791
I859
sVlowly
p792
I2723
sVtony
p793
I4549
sVsprings
p794
I4201
sVtrust
p795
I4624
sVheals
p796
I2125
sVspeak
p797
I4163
sVgratitude
p798
I2023
sVyale
p799
I4978
sVpetty
p800
I3292
sVrighteousness
p801
I3799
sVyear'
p802
I4983
sVasks
p803
I289
sVbasis
p804
I398
sVunion
p805
I4687
sVcondemned
p806
I879
sVtiny
p807
I4528
sVquickly
p808
I3585
sVconfident
p809
I886
sVbeer
p810
I424
sVspread
p811
I4198
sVcommunion
p812
I829
sVbasic
p813
I396
sVexpected
p814
I1598
sVparents
p815
I3200
sVentered
p816
I1496
sVlovely
p817
I2713
sVincompetent
p818
I2318
sVduties
p819
I1362
sVlife
p820
I2634
sVfamilies
p821
I1672
sVdeeper
p822
I1120
sVprosperous
p823
I3532
sVattacked
p824
I328
sVdrugs
p825
I1355
sVsuppress
p826
I4366
sVrepublicans
p827
I3735
sVresting
p828
I3761
sVspeeches
p829
I4171
sVuncommon
p830
I4659
sVenterprises
p831
I1499
sVlift
p832
I2638
sVdoubts
p833
I1321
sVcatch
p834
I646
sVworked
p835
I4936
sVdoth
p836
I1316
sVserving
p837
I3971
sVwrath
p838
I4963
sVapplied
p839
I240
sVcommerce
p840
I817
sVexception
p841
I1571
sVrighteous
p842
I3798
sVconviction
p843
I965
sVpresidency
p844
I3451
sVaffirm
p845
I122
sVapprehension
p846
I247
sVshrink
p847
I4027
sVstrict
p848
I4284
sVair
p849
I151
sVaim
p850
I147
sVinformation
p851
I2354
sVnear
p852
I2991
sVneat
p853
I2995
sVsurprised
p854
I4373
sVaid
p855
I145
sVbalance
p856
I380
sVstudy
p857
I4310
sVmistake
p858
I2891
sVremembering
p859
I3711
sVseven
p860
I3978
sVeconomics
p861
I1396
sVplayed
p862
I3340
sVwrites
p863
I4969
sVdefeated
p864
I1124
sVplayer
p865
I3341
sVtissue
p866
I4533
sVexperts
p867
I1609
sVjest
p868
I2461
sVexile
p869
I1587
sVvictims
p870
I4762
sVt
I4406
sVignoring
p871
I2255
sVmouse
p872
I2946
sVdisappear
p873
I1245
sVgrown
p874
I2050
sVlacking
p875
I2546
sVperform
p876
I3256
sVsaw
p877
I3889
sVmake
p878
I2752
sVwound
p879
I4958
sVheart'
p880
I2133
sVrebellion
p881
I3647
sVinstincts
p882
I2395
sVcomplex
p883
I854
sVpotentially
p884
I3402
sVharmony
p885
I2108
sVbabies
p886
I372
sVpreconceived
p887
I3431
sVavoids
p888
I359
sVsilly
p889
I4044
sVliberal
p890
I2625
sVsuperman
p891
I4359
sVconvictions
p892
I966
sVcapacities
p893
I620
sVentitled
p894
I1506
sVwheel
p895
I4867
sVevolve
p896
I1558
sVmarches
p897
I2772
sVsings
p898
I4057
sVunlimited
p899
I4701
sVpermit
p900
I3267
sVhang
p901
I2089
sVevil
p902
I1555
sVhand
p903
I2081
sVdelight
p904
I1142
sVsuperior
p905
I4357
sVscale
p906
I3893
sVcharacters
p907
I693
sVmilitary
p908
I2861
sVopportunity
p909
I3130
sVi'
p910
I2238
sVkid
p911
I2506
sVbutter
p912
I599
sVnarrow
p913
I2978
sVkept
p914
I2501
sVthy
p915
I4515
sVprograms
p916
I3512
sVcharlie
p917
I699
sVpossessed
p918
I3387
sVfailing
p919
I1650
sVtrick
p920
I4606
sVpause
p921
I3234
sVinherit
p922
I2360
sVocean
p923
I3095
sVcontact
p924
I932
sVgreatest
p925
I2031
sVincapable
p926
I2309
sVhumbly
p927
I2223
sVclaims
p928
I759
sVmusical
p929
I2965
sVfittest
p930
I1769
sVleft
p931
I2601
sVopinions
p932
I3126
sVimpression
p933
I2295
sVtraditions
p934
I4573
sVconsciousness
p935
I905
sVsentence
p936
I3953
sVgods
p937
I1979
sVstarting
p938
I4221
sVrush
p939
I3847
sVideas
p940
I2245
sVassigned
p941
I302
sVdisguise
p942
I1271
sVmaketh
p943
I2754
sVfarther
p944
I1681
sVfullness
p945
I1906
sVfacts
p946
I1643
sVfollowed
p947
I1809
sVhouses
p948
I2217
sVprevious
p949
I3462
sVadding
p950
I81
sVenters
p951
I1500
sVhills
p952
I2167
sVinfinitely
p953
I2349
sVease
p954
I1384
sVassassination
p955
I298
sVcharacter
p956
I690
sVpassive
p957
I3224
sVbelongs
p958
I446
sVtransformed
p959
I4584
sVboard
p960
I501
sVbeloved
p961
I447
sVprison
p962
I3478
sVeast
p963
I1388
sVhat
p964
I2114
sVflowing
p965
I1796
sVgave
p966
I1934
sVshoulder
p967
I4021
sVadvances
p968
I103
sVbreaks
p969
I550
sVpossible
p970
I3394
sVtear
p971
I4436
sVpossibly
p972
I3395
sVbastards
p973
I400
sVbirth
p974
I471
sVperformance
p975
I3257
sVjudge
p976
I2481
sVshadow
p977
I3984
sVhighly
p978
I2164
sVgod'
p979
I1977
sVadvanced
p980
I102
sVapart
p981
I220
sVdesire
p982
I1181
sVdignity
p983
I1229
sVstrengths
p984
I4280
sVtheory
p985
I4483
sVgift
p986
I1955
sVvisible
p987
I4780
sVzeal
p988
I4999
sVcontradict
p989
I953
sVperforming
p990
I3259
sVdishonest
p991
I1274
sVunnecessary
p992
I4703
sVstroke
p993
I4295
sVtight
p994
I4522
sVspecific
p995
I4169
sVremind
p996
I3713
sVsuffers
p997
I4340
sVsteps
p998
I4247
sVsplendor
p999
I4187
sVarbitrary
p1000
I254
sVhung
p1001
I2228
sVsecurity
p1002
I3926
sVtoughest
p1003
I4564
sVtastes
p1004
I4425
sVcowardice
p1005
I1004
sVbattlefield
p1006
I404
sVright
p1007
I3797
sVhonored
p1008
I2193
sVcrowd
p1009
I1042
sVpeople
p1010
I3246
sVsends
p1011
I3946
sVflatter
p1012
I1779
sVcreed
p1013
I1026
sVeasy
p1014
I1389
sVcrown
p1015
I1044
sVmaxim
p1016
I2801
sVdead
p1017
I1092
sVborn
p1018
I523
sVoffer
p1019
I3100
sVsure
p1020
I4368
sVelection
p1021
I1422
sVescape
p1022
I1524
sVdear
p1023
I1096
sVpain
p1024
I3181
sVbore
p1025
I519
sVguess
p1026
I2058
sVglance
p1027
I1965
sVlibrary
p1028
I2630
sVenemies
p1029
I1471
sVignore
p1030
I2254
sVrender
p1031
I3718
sVhumor
p1032
I2225
sVestablish
p1033
I1530
sVcompanions
p1034
I835
sVfox
p1035
I1870
sVice
p1036
I2239
sVcreative
p1037
I1020
sVwitty
p1038
I4919
sVfoe
p1039
I1803
sVasking
p1040
I288
sVtyranny
p1041
I4642
sVshakespeare
p1042
I3987
sVunbelief
p1043
I4654
sVdenied
p1044
I1157
sVintolerant
p1045
I2429
sVpattern
p1046
I3231
sVbeating
p1047
I415
sVchristmas
p1048
I744
sVcore
p1049
I974
sVcolumbus
p1050
I800
sVknew
p1051
I2528
sVbold
p1052
I508
sVburn
p1053
I591
sVconfer
p1054
I883
sVmonsters
p1055
I2918
sVfullest
p1056
I1905
sVupward
p1057
I4716
sVlosing
p1058
I2702
sVflaws
p1059
I1782
sVsomething'
p1060
I4126
sVinsanity
p1061
I2375
sVbury
p1062
I594
sVpermitted
p1063
I3269
sVtakes
p1064
I4410
sVessence
p1065
I1526
sVultimately
p1066
I4650
sVcowboy
p1067
I1007
sVconceal
p1068
I863
sVtheirs
p1069
I4481
sVdollars
p1070
I1309
sVcitizens
p1071
I753
sVaccepts
p1072
I30
sVchoke
p1073
I733
sVo
I3065
sVdinner
p1074
I1234
sVdespair
p1075
I1184
sVensure
p1076
I1494
sVafternoon
p1077
I129
sVhorizon
p1078
I2204
sVcherish
p1079
I714
sVcommit
p1080
I819
sVefforts
p1081
I1415
sVslightly
p1082
I4084
sVautomatically
p1083
I351
sVnixon
p1084
I3029
sVnerve
p1085
I3012
sVprimitive
p1086
I3471
sVcontains
p1087
I935
sVpresence
p1088
I3443
sVcivil
p1089
I755
sVpays
p1090
I3237
sVprofession
p1091
I3501
sVbound
p1092
I531
sVintellectual
p1093
I2406
sVarms
p1094
I271
sVrecognize
p1095
I3657
sVlies
p1096
I2633
sVbeings
p1097
I435
sVaccomplishments
p1098
I41
sVraises
p1099
I3605
sVdoctrine
p1100
I1300
sVformidable
p1101
I1849
sVbalanced
p1102
I381
sVold
p1103
I3112
sVinsult
p1104
I2403
sVfrightened
p1105
I1893
sVnuisance
p1106
I3057
sVparticularly
p1107
I3207
sVexisted
p1108
I1589
sVrely
p1109
I3703
sVdeal
p1110
I1094
sVwaking
p1111
I4802
sVwaits
p1112
I4800
sVindispensable
p1113
I2335
sVconstantly
p1114
I924
sVjealousy
p1115
I2458
sVsovereign
p1116
I4153
sVsunlight
p1117
I4353
sVfight
p1118
I1738
sVhumorous
p1119
I2227
sVaccordingly
p1120
I44
sVfought
p1121
I1861
sVeditor
p1122
I1403
sVway
p1123
I4832
sVgreatness
p1124
I2033
sVwhy'
p1125
I4877
sVwar
p1126
I4813
sVleading
p1127
I2583
sVcalm
p1128
I609
sVfork
p1129
I1844
sVintolerance
p1130
I2428
sVhead
p1131
I2121
sVmedium
p1132
I2822
sVform
p1133
I1845
sVdiligence
p1134
I1230
sVdeaf
p1135
I1093
sVheal
p1136
I2123
sVdifferences
p1137
I1222
sVdiscourage
p1138
I1254
sVvitality
p1139
I4785
sVford
p1140
I1827
sVfailure
p1141
I1653
sVheat
p1142
I2135
sVhear
p1143
I2128
sVastonished
p1144
I315
sVblindness
p1145
I490
sVremoved
p1146
I3717
sVtrue
p1147
I4619
sVfort
p1148
I1853
sVabsent
p1149
I10
sVcounsel
p1150
I983
sVbuilds
p1151
I584
sVhappen
p1152
I2091
sVunderstood
p1153
I4669
sVinvincible
p1154
I2439
sVinside
p1155
I2377
sVfills
p1156
I1745
sVattached
p1157
I326
sVbounds
p1158
I533
sVruined
p1159
I3838
sVretire
p1160
I3769
sVgenerosity
p1161
I1940
sVadore
p1162
I98
sVanew
p1163
I191
sVemotional
p1164
I1443
sVmountain
p1165
I2944
sVstages
p1166
I4208
sVpropaganda
p1167
I3522
sVhorses
p1168
I2208
sVpromises
p1169
I3518
sVlater
p1170
I2563
sVdisgrace
p1171
I1270
sVsticks
p1172
I4251
sVteaching
p1173
I4434
sVfury
p1174
I1915
sVupset
p1175
I4715
sVabstract
p1176
I16
sVsouls
p1177
I4144
sVisrael
p1178
I2452
sVcovers
p1179
I1001
sVevidence
p1180
I1553
sVsomebody
p1181
I4122
sVproves
p1182
I3542
sVexist
p1183
I1588
sVpromised
p1184
I3517
sVfashioned
p1185
I1685
sVcurious
p1186
I1058
sVaccounting
p1187
I46
sVawhile
p1188
I369
sVannoying
p1189
I201
sVsympathy
p1190
I4401
sVcheck
p1191
I707
sVshit
p1192
I4010
sVphysical
p1193
I3302
sVwillingly
p1194
I4886
sVlooked
p1195
I2694
sVparadox
p1196
I3197
sVfaithful
p1197
I1660
sVdying
p1198
I1367
sVfloor
p1199
I1791
sVunderestimate
p1200
I4664
sVstake
p1201
I4209
sVexcel
p1202
I1568
sVactor
p1203
I71
sVintellect
p1204
I2405
sVuttered
p1205
I4731
sVflood
p1206
I1790
sVinterested
p1207
I2417
sVrepublic
p1208
I3733
sVambitious
p1209
I176
sVpapers
p1210
I3195
sVtest
p1211
I4471
sVtie
p1212
I4518
sVsmell
p1213
I4093
sVroll
p1214
I3817
sVrealize
p1215
I3635
sVeternity
p1216
I1539
sVpicture
p1217
I3307
sVimpossibilities
p1218
I2291
sVbrothers
p1219
I573
sVsavage
p1220
I3884
sVhandicap
p1221
I2083
sVdies
p1222
I1218
sVfelt
p1223
I1725
sVconvincing
p1224
I969
sVpolite
p1225
I3369
sVdiet
p1226
I1219
sVfell
p1227
I1721
sVintent
p1228
I2414
sVmuse
p1229
I2961
sVoccasion
p1230
I3087
sVpersecution
p1231
I3272
sVhurt
p1232
I2232
sVtalents
p1233
I4414
sVdied
p1234
I1217
sVscholar
p1235
I3900
sVbillion
p1236
I465
sVyounger
p1237
I4996
sVcheated
p1238
I706
sVapology
p1239
I222
sVglass
p1240
I1966
sVassume
p1241
I307
sVinterval
p1242
I2424
sVdaily
p1243
I1070
sVmiseries
p1244
I2883
sVloyal
p1245
I2724
sVsafe
p1246
I3858
sVuseful
p1247
I4723
sVteeth
p1248
I4442
sVpush
p1249
I3568
sVintimacy
p1250
I2425
sVbackward
p1251
I375
sVprivilege
p1252
I3481
sVsongs
p1253
I4130
sVneighbors
p1254
I3010
sVprecise
p1255
I3429
sVconcept
p1256
I869
sVmanaged
p1257
I2761
sVimpulse
p1258
I2302
sVchain
p1259
I675
sVdiplomacy
p1260
I1235
sVdance
p1261
I1075
sVseparates
p1262
I3957
sValternatives
p1263
I169
sVfocus
p1264
I1801
sVinvent
p1265
I2434
sVexceeding
p1266
I1567
sVleads
p1267
I2584
sVmanager
p1268
I2763
sVmile
p1269
I2859
sVgrateful
p1270
I2021
sVskin
p1271
I4072
sVbattle
p1272
I403
sVindians
p1273
I2331
sVchair
p1274
I677
sVabundant
p1275
I21
sVmidst
p1276
I2856
sVrow
p1277
I3836
sVdevoted
p1278
I1210
sVcertainly
p1279
I672
sVanticipation
p1280
I212
sVdepend
p1281
I1162
sVuniverse
p1282
I4693
sVreligion
p1283
I3700
sVstriving
p1284
I4294
sVapril
p1285
I252
sVfather
p1286
I1692
sVworth
p1287
I4955
sVtrivial
p1288
I4614
sVpassage
p1289
I3216
sVenvironment
p1290
I1509
sVanswered
p1291
I206
sVcharge
p1292
I694
sVcivilization
p1293
I756
sVpermanently
p1294
I3265
sVmarks
p1295
I2775
sVdiscovering
p1296
I1261
sVidealist
p1297
I2243
sVsing
p1298
I4054
sVretreat
p1299
I3771
sVride
p1300
I3794
sVbrown
p1301
I575
sVsupported
p1302
I4363
sVstring
p1303
I4289
sVadvantage
p1304
I105
sVrecipe
p1305
I3655
sVstory
p1306
I4268
sVchoice
p1307
I731
sVgloomy
p1308
I1970
sVchild'
p1309
I723
sVcook
p1310
I970
sVlocked
p1311
I2681
sVforgiving
p1312
I1841
sVexact
p1313
I1561
sVfeeble
p1314
I1711
sVaiming
p1315
I149
sVcool
p1316
I971
sVperceived
p1317
I3250
sVclouds
p1318
I785
sVimpressive
p1319
I2296
sVlevel
p1320
I2621
sValtering
p1321
I167
sVdie
p1322
I1216
sVdig
p1323
I1228
sVbrother
p1324
I571
sVgum
p1325
I2065
sVstandards
p1326
I4213
sVleave
p1327
I2596
sVpresents
p1328
I3446
sVsettle
p1329
I3976
sVexcellence
p1330
I1569
sVscience
p1331
I3903
sVquick
p1332
I3582
sVguy
p1333
I2069
sVeagles
p1334
I1372
sVunaware
p1335
I4652
sVlloyd
p1336
I2677
sVresemble
p1337
I3741
sVprevent
p1338
I3460
sVspiritual
p1339
I4182
sVaccomplishment
p1340
I40
sVsays
p1341
I3892
sVfearing
p1342
I1704
sVinsignificant
p1343
I2380
sVdealing
p1344
I1095
sVdiscover
p1345
I1258
sVrefusing
p1346
I3677
sVneglect
p1347
I3006
sVcost
p1348
I981
sVroof
p1349
I3824
sVscarce
p1350
I3894
sVtrent
p1351
I4601
sVpatient
p1352
I3229
sVhelpless
p1353
I2149
sVtheories
p1354
I4482
sVfear
p1355
I1701
sVsubstitute
p1356
I4324
sVdrinks
p1357
I1345
sVeducate
p1358
I1404
sVcurse
p1359
I1061
sVadds
p1360
I84
sVappear
p1361
I228
sVmoments
p1362
I2913
sVnothingness
p1363
I3046
sVmister
p1364
I2894
sVassistance
p1365
I303
sVfavour
p1366
I1700
sVmelt
p1367
I2827
sVagrees
p1368
I142
sVcurrent
p1369
I1059
sVhungry
p1370
I2230
sVsuspect
p1371
I4382
sVgoes
p1372
I1980
sVview
p1373
I4767
sVguilt
p1374
I2063
sVfalling
p1375
I1664
sVappeal
p1376
I227
sVoptions
p1377
I3141
sVfilled
p1378
I1743
sVsatisfy
p1379
I3881
sVrealizing
p1380
I3638
sVjury
p1381
I2490
sVpartners
p1382
I3212
sVheavily
p1383
I2138
sVhonour
p1384
I2195
sVfuneral
p1385
I1912
sVmr
p1386
I2954
sVappetites
p1387
I234
sVinspiring
p1388
I2388
sVfrench
p1389
I1883
sVsuperstition
p1390
I4360
sVwater
p1391
I4827
sVcontemplate
p1392
I936
sVdetest
p1393
I1201
sVbaseball
p1394
I394
sVgroups
p1395
I2047
sVaddress
p1396
I83
sVteaches
p1397
I4433
sVappears
p1398
I232
sVchange
p1399
I684
sVwait
p1400
I4797
sVbox
p1401
I536
sVboy
p1402
I538
sVaccomplishes
p1403
I38
sVboast
p1404
I502
sVbrilliant
p1405
I563
sVshift
p1406
I4003
sVimplies
p1407
I2286
sVstudied
p1408
I4308
sVguilty
p1409
I2064
sVcommonly
p1410
I825
sVbow
p1411
I534
sVtrial
p1412
I4602
sVaccomplished
p1413
I37
sVdescended
p1414
I1172
sVsuggestion
p1415
I4345
sVusually
p1416
I4728
sVshifting
p1417
I4004
sVbob
p1418
I504
sVhere'
p1419
I2151
sVpillow
p1420
I3316
sVgenuinely
p1421
I1949
sVemerge
p1422
I1440
sVtasks
p1423
I4422
sVlove
p1424
I2710
sVlasts
p1425
I2561
sVmorals
p1426
I2929
sVextra
p1427
I1625
sVmadman
p1428
I2741
sVmerely
p1429
I2841
sVprefer
p1430
I3433
sVlogical
p1431
I2684
sVmarvelous
p1432
I2782
sViron
p1433
I2446
sVwretched
p1434
I4964
sVstreet
p1435
I4276
sVfake
p1436
I1661
sVembarrassing
p1437
I1437
sVrarely
p1438
I3613
sVcrisis
p1439
I1034
sVmarket
p1440
I2774
sVeverybody
p1441
I1550
sVvoices
p1442
I4787
sVwealth
p1443
I4840
sVlucilium
p1444
I2726
sVprove
p1445
I3538
sVsake
p1446
I3870
sVpositive
p1447
I3385
sVangry
p1448
I196
sVtied
p1449
I4519
sVvisit
p1450
I4782
sVtightly
p1451
I4523
sVfrance
p1452
I1875
sVparties
p1453
I3208
sVtriumphs
p1454
I4613
sVcherished
p1455
I715
sVplanted
p1456
I3334
sVprey
p1457
I3463
sVopposed
p1458
I3132
sVmemory
p1459
I2831
sVnegroes
p1460
I3008
sVblack
p1461
I480
sVwounded
p1462
I4959
sVangels
p1463
I193
sVtoday
p1464
I4535
sVloving
p1465
I2719
sVentrance
p1466
I1507
sVflung
p1467
I1798
sVafford
p1468
I125
sVindividual'
p1469
I2337
sVacceptable
p1470
I26
sVapparent
p1471
I225
sVwherefore
p1472
I4868
sVrefrain
p1473
I3671
sVchocolate
p1474
I730
sVignorant
p1475
I2253
sVvirtue
p1476
I4777
sVorator
p1477
I3143
sVcases
p1478
I641
sVeffort
p1479
I1414
sVeasiest
p1480
I1386
sVbehalf
p1481
I431
sVinsights
p1482
I2379
sVfly
p1483
I1799
sVhoney
p1484
I2190
sVvalued
p1485
I4740
sVcar
p1486
I625
sVpretend
p1487
I3456
sVsoul
p1488
I4142
sVbeliever
p1489
I440
sVcat
p1490
I645
sVattacks
p1491
I329
sVhardest
p1492
I2103
sVgathers
p1493
I1933
sVrenders
p1494
I3719
sVhope
p1495
I2198
sVuses
p1496
I4725
sVtragic
p1497
I4576
sVbelieved
p1498
I439
sVmaking
p1499
I2755
sVtune
p1500
I4632
sVarrive
p1501
I273
sVlaughter
p1502
I2569
sVnewspapers
p1503
I3022
sVslightest
p1504
I4083
sVbreeds
p1505
I556
sVthief
p1506
I4485
sVclaim
p1507
I758
sVclassrooms
p1508
I762
sVmonths
p1509
I2921
sVcorrupted
p1510
I978
sVfigure
p1511
I1741
sVpredict
p1512
I3432
sVattribute
p1513
I344
sVsense
p1514
I3948
sVconfused
p1515
I894
sVtrouble
p1516
I4615
sVheard
p1517
I2129
sVcritic
p1518
I1035
sVperformed
p1519
I3258
sVallowed
p1520
I163
sVoffense
p1521
I3099
sVcounting
p1522
I989
sVclothing
p1523
I783
sVoccur
p1524
I3093
sVprocrastination
p1525
I3491
sVlistens
p1526
I2667
sVproductive
p1527
I3498
sVwinter
p1528
I4903
sVinheritance
p1529
I2361
sVdivided
p1530
I1293
sVmeans
p1531
I2810
sVmoves
p1532
I2950
sVrange
p1533
I3609
sVchemical
p1534
I713
sVimmune
p1535
I2279
sVsunday
p1536
I4352
sVvital
p1537
I4784
sVfourth
p1538
I1869
sVelephant
p1539
I1429
sVsignificant
p1540
I4039
sVplus
p1541
I3355
sVyouth
p1542
I4997
sVfirmly
p1543
I1762
sVeconomy
p1544
I1399
sVsuffer
p1545
I4336
sVarmies
p1546
I269
sVproduct
p1547
I3496
sVstood
p1548
I4260
sVirrational
p1549
I2448
sVinfluenced
p1550
I2352
sVcritics
p1551
I1039
sVsacrifice
p1552
I3853
sVfed
p1553
I1709
sVspot
p1554
I4196
sVexpectation
p1555
I1596
sVserves
p1556
I3968
sVbirthday
p1557
I472
sVdesigned
p1558
I1179
sVdate
p1559
I1086
sVheroes
p1560
I2153
sVdestructive
p1561
I1195
sVflourish
p1562
I1792
sVgrow
p1563
I2048
sVlifting
p1564
I2639
sVman
p1565
I2758
sVdisagreeable
p1566
I1244
sVstress
p1567
I4281
sVnatural
p1568
I2984
sVneck
p1569
I3000
sVcommodity
p1570
I823
sVconscious
p1571
I904
sVcandles
p1572
I616
sVsymphony
p1573
I4402
sVst
p1574
I4203
sVtale
p1575
I4412
sVprovide
p1576
I3543
sVjail
p1577
I2456
sVsilence
p1578
I4041
sVdeceive
p1579
I1103
sVbasket
p1580
I399
sVtall
p1581
I4419
sVtalk
p1582
I4415
sVunconsciously
p1583
I4662
sVdrunken
p1584
I1357
sVhands
p1585
I2086
sVacts
p1586
I73
sVshoes
p1587
I4014
sVseeing
p1588
I3929
sVpreaches
p1589
I3425
sVpointed
p1590
I3363
sVmainly
p1591
I2747
sVraised
p1592
I3604
sVfeature
p1593
I1708
sVstability
p1594
I4204
sVbrain
p1595
I540
sVexperiments
p1596
I1607
sVpitch
p1597
I3318
sVcold
p1598
I793
sVbirds
p1599
I470
sVtendency
p1600
I4457
sVthomas
p1601
I4495
sVsolitary
p1602
I4115
sVrevenge
p1603
I3777
sVderive
p1604
I1170
sVgroup
p1605
I2046
sVthank
p1606
I4476
sVacknowledge
p1607
I56
sVmuses
p1608
I2962
sVinteresting
p1609
I2418
sVinferior
p1610
I2347
sVtroubles
p1611
I4617
sVhot
p1612
I2212
sVinflicted
p1613
I2350
sVforms
p1614
I1851
sVattraction
p1615
I341
sVimmortality
p1616
I2278
sVoffers
p1617
I3103
sVsuspicion
p1618
I4383
sVconstitutes
p1619
I925
sVantipathy
p1620
I213
sVpolicy
p1621
I3367
sVmain
p1622
I2746
sVstyle
p1623
I4316
sVugly
p1624
I4647
sVinefficiency
p1625
I2343
sVhappened
p1626
I2092
sVnon
p1627
I3037
sVlonely
p1628
I2687
sVhalt
p1629
I2079
sVviews
p1630
I4769
sVimpulses
p1631
I2303
sVconversations
p1632
I964
sVkiller
p1633
I2511
sVintroduce
p1634
I2431
sVdelighted
p1635
I1143
sVunderneath
p1636
I4665
sVlesser
p1637
I2612
sVtouching
p1638
I4562
sVconquer
p1639
I900
sVhalf
p1640
I2076
sVaspirations
p1641
I294
sVbath
p1642
I402
sVtwilight
p1643
I4639
sVdiscuss
p1644
I1266
sVpossess
p1645
I3386
sVterm
p1646
I4463
sVequality
p1647
I1514
sVvision
p1648
I4781
sVthankful
p1649
I4477
sVopera
p1650
I3122
sVpreferable
p1651
I3434
sVdrop
p1652
I1351
sVpossibilities
p1653
I3392
sVpeasant
p1654
I3240
sVrock
p1655
I3814
sVveins
p1656
I4751
sVentirely
p1657
I1505
sVquarter
p1658
I3576
sVwent
p1659
I4862
sVem
p1660
I1436
sVvain
p1661
I4735
sVreminded
p1662
I3714
sVfired
p1663
I1759
sVwhosoever
p1664
I4876
sVed
p1665
I1401
sVtorch
p1666
I4553
sVyeah
p1667
I4981
sVchallenges
p1668
I679
sVwrap
p1669
I4961
sVfires
p1670
I1760
sVex
p1671
I1560
sVbegun
p1672
I430
sVyear
p1673
I4982
sVet
p1674
I1537
sVgirl
p1675
I1957
sVworried
p1676
I4948
sVamusement
p1677
I184
sVer
p1678
I1518
sVcanada
p1679
I613
sVliving
p1680
I2676
sVcanvas
p1681
I618
sVaccomplish
p1682
I36
sVopened
p1683
I3118
sVspace
p1684
I4156
sVprofit
p1685
I3505
sVgreeks
p1686
I2036
sVirony
p1687
I2447
sVabide
p1688
I1
sVstumble
p1689
I4313
sVincrease
p1690
I2322
sVattracted
p1691
I340
sVcontained
p1692
I934
sVinvestigation
p1693
I2438
sVimperative
p1694
I2283
sVrational
p1695
I3617
sVinternet
p1696
I2423
sVformula
p1697
I1852
sVreceiving
p1698
I3652
sVcorrect
p1699
I976
sVassurance
p1700
I312
sVinaction
p1701
I2305
sVeagle
p1702
I1371
sVvirtues
p1703
I4778
sVattended
p1704
I335
sVmonster
p1705
I2917
sVunexpected
p1706
I4678
sVcars
p1707
I638
sVmillion
p1708
I2863
sVgoverning
p1709
I1998
sVquite
p1710
I3589
sVcomplicated
p1711
I855
sVsuccess
p1712
I4329
sVpoems
p1713
I3358
sVobligation
p1714
I3074
sVinevitable
p1715
I2344
sVcare
p1716
I627
sVadvance
p1717
I101
sVtraining
p1718
I4579
sVfixed
p1719
I1771
sVcontemplation
p1720
I937
sVdisguised
p1721
I1272
sVministry
p1722
I2871
sVfabric
p1723
I1635
sVprogramming
p1724
I3511
sVcontented
p1725
I940
sVbritish
p1726
I567
sVhonest
p1727
I2187
sVmotion
p1728
I2938
sVstrange
p1729
I4271
sVthine
p1730
I4487
sVplace
p1731
I3320
sVobscure
p1732
I3077
sVswing
p1733
I4397
sVunborn
p1734
I4655
sVentrusted
p1735
I1508
sVstar
p1736
I4216
sVchildhood
p1737
I724
sVsilver
p1738
I4045
sVblood
p1739
I493
sVblind
p1740
I489
sVcheese
p1741
I712
sVintuition
p1742
I2432
sVflying
p1743
I1800
sVdwelling
p1744
I1365
sVpick
p1745
I3305
sVstrengthened
p1746
I4279
sVspoken
p1747
I4191
sVlegislation
p1748
I2604
sVfaculty
p1749
I1645
sVsafety
p1750
I3863
sVtransform
p1751
I4583
sVamericans
p1752
I182
sVlong
p1753
I2689
sVdirectly
p1754
I1240
sVwither
p1755
I4915
sVcarry
p1756
I636
sVimpossible
p1757
I2293
sVmessage
p1758
I2846
sVopen
p1759
I3117
sVgeorge
p1760
I1950
sVaffords
p1761
I126
sVcheerfully
p1762
I710
sVdisinterested
p1763
I1276
sVcity
p1764
I754
sVgiven
p1765
I1959
sVnecessarily
p1766
I2996
sVofficials
p1767
I3106
sVpersonalities
p1768
I3280
sVstuck
p1769
I4305
sVcaught
p1770
I650
sVbreed
p1771
I555
sVeurope
p1772
I1542
sVplastic
p1773
I3337
sVphysically
p1774
I3303
sVreturns
p1775
I3773
sVvictorious
p1776
I4764
sVsweep
p1777
I4389
sVterrifying
p1778
I4467
sVrealization
p1779
I3634
sVwhite
p1780
I4872
sVutmost
p1781
I4729
sVbits
p1782
I476
sVnational
p1783
I2981
sVfriend
p1784
I1886
sVgives
p1785
I1961
sVeyes
p1786
I1632
sVpanic
p1787
I3192
sVbrains
p1788
I541
sVcontinuous
p1789
I951
sVpolitically
p1790
I3372
sVrelationship
p1791
I3693
sVundertaken
p1792
I4671
sVoutcome
p1793
I3162
sValas
p1794
I154
sVeyed
p1795
I1631
sVelusive
p1796
I1435
sVeliminated
p1797
I1432
sVcopy
p1798
I973
sVappreciated
p1799
I245
sVquantity
p1800
I3574
sVinventor
p1801
I2437
sVwide
p1802
I4879
sVtelevision
p1803
I4444
sVunfortunately
p1804
I4683
sVfavors
p1805
I1699
sVgotta
p1806
I1994
sVfolly
p1807
I1812
sVoptimism
p1808
I3137
sVcomputer
p1809
I861
sVapples
p1810
I238
sVventure
p1811
I4753
sVaesthetic
p1812
I113
sVcards
p1813
I626
sVasleep
p1814
I290
sVcounselor
p1815
I984
sVdamned
p1816
I1074
sVsublime
p1817
I4320
sVsurround
p1818
I4377
sVsoil
p1819
I4109
sVlowest
p1820
I2722
sVillness
p1821
I2258
sVtasted
p1822
I4424
sVangel
p1823
I192
sVlargely
p1824
I2558
sVacknowledged
p1825
I57
sVvirtuous
p1826
I4779
sVturned
p1827
I4634
sVargument
p1828
I261
sVovernight
p1829
I3169
sVant
p1830
I209
sVsay
p1831
I3890
sVconspiracy
p1832
I922
sVburied
p1833
I590
sVanger
p1834
I194
sVwon
p1835
I4926
sVbreakfast
p1836
I548
sVunpunished
p1837
I4706
sVoccupied
p1838
I3092
sVpebble
p1839
I3241
sVsat
p1840
I3877
sVprosperity
p1841
I3531
sVweakened
p1842
I4836
sVoffering
p1843
I3102
sVefficient
p1844
I1413
sVwarriors
p1845
I4818
sVanswering
p1846
I207
sVaside
p1847
I285
sVnote
p1848
I3044
sVsciences
p1849
I3904
sVideal
p1850
I2241
sVjefferson
p1851
I2459
sVsilently
p1852
I4043
sVsuffering
p1853
I4338
sVforming
p1854
I1850
sVobjective
p1855
I3072
sVdestroy
p1856
I1190
sVencouraged
p1857
I1455
sVchannel
p1858
I688
sVbutterfly
p1859
I600
sVsecretary
p1860
I3922
sVbegin
p1861
I426
sVcommonplace
p1862
I826
sVamiable
p1863
I183
sVshade
p1864
I3983
sVnormal
p1865
I3040
sVarguing
p1866
I260
sVprice
p1867
I3464
sVkeeps
p1868
I2499
sVhealthy
p1869
I2127
sVsurprise
p1870
I4372
sVpaid
p1871
I3180
sVfalls
p1872
I1665
sVassault
p1873
I299
sVsatisfying
p1874
I3882
sVprinted
p1875
I3477
sVpair
p1876
I3190
sVundertakings
p1877
I4673
sVamerica
p1878
I179
sVpages
p1879
I3179
sVpeaceful
p1880
I3239
sVforever
p1881
I1832
sVoperate
p1882
I3123
sVespecially
p1883
I1525
sVsurprising
p1884
I4374
sVboys
p1885
I539
sVconsidered
p1886
I915
sVegg
p1887
I1416
sVaverage
p1888
I356
sVadopt
p1889
I96
sVsteady
p1890
I4239
sVdrive
p1891
I1346
sVwing
p1892
I4896
sVways
p1893
I4834
sVsunset
p1894
I4354
sVwind
p1895
I4891
sVslaves
p1896
I4078
sVaxe
p1897
I370
sVprofessional
p1898
I3502
sVwine
p1899
I4895
sVsalt
p1900
I3871
sVsurface
p1901
I4371
sVlaws
p1902
I2573
sVevent
p1903
I1546
sVurge
p1904
I4718
sVreply
p1905
I3729
sVtempered
p1906
I4449
sVliking
p1907
I2650
sVcheat
p1908
I705
sVornament
p1909
I3158
sVurgent
p1910
I4719
sVimagines
p1911
I2269
sVcheap
p1912
I704
sVmerit
p1913
I2842
sVfifty
p1914
I1736
sVdiscovered
p1915
I1259
sVbright
p1916
I561
sVspaces
p1917
I4157
sVinconsistent
p1918
I2320
sVsustained
p1919
I4385
sVcorner
p1920
I975
sVforecast
p1921
I1828
sVimagined
p1922
I2268
sVground
p1923
I2044
sVsharing
p1924
I3996
sVwaited
p1925
I4798
sVsafeguard
p1926
I3859
sVgenius
p1927
I1942
sVdevote
p1928
I1209
sVproportion
p1929
I3528
sVcloak
p1930
I773
sVcrime
p1931
I1030
sVwinged
p1932
I4897
sVtears
p1933
I4437
sVgoing
p1934
I1981
sVbelieving
p1935
I443
sVworthwhile
p1936
I4956
sVconsent
p1937
I906
sVenthusiasm
p1938
I1503
sVwatching
p1939
I4826
sVawareness
p1940
I365
sVdispute
p1941
I1280
sVlighted
p1942
I2641
sVfades
p1943
I1647
sVpsychiatrist
p1944
I3549
sVwitness
p1945
I4916
sVman'
p1946
I2759
sVadmiration
p1947
I89
sVsatisfied
p1948
I3880
sVunimportant
p1949
I4686
sVnearly
p1950
I2994
sVdistinctly
p1951
I1286
sVjustified
p1952
I2494
sVcelebrate
p1953
I658
sVprime
p1954
I3470
sVreveal
p1955
I3774
sVreading
p1956
I3627
sVresource
p1957
I3751
sVskull
p1958
I4073
sVkeenly
p1959
I2497
sVartist
p1960
I281
sVseldom
p1961
I3936
sVborrow
p1962
I524
sVyield
p1963
I4991
sVmorning
p1964
I2930
sVjoker
p1965
I2475
sVjokes
p1966
I2476
sVeffectual
p1967
I1411
sVmiles
p1968
I2860
sVsource
p1969
I4150
sVprevents
p1970
I3461
sVworries
p1971
I4949
sVmarred
p1972
I2776
sVworrying
p1973
I4951
sVhusband
p1974
I2234
sVstaff
p1975
I4206
sVreveals
p1976
I3776
sVmess
p1977
I2845
sVhonesty
p1978
I2189
sVimposing
p1979
I2290
sVstation
p1980
I4230
sVlabors
p1981
I2543
sVmaximum
p1982
I2802
sVrelative
p1983
I3695
sVelected
p1984
I1421
sVunfit
p1985
I4680
sVcollege
p1986
I797
sVhell
p1987
I2144
sVprogress
p1988
I3513
sVcalendar
p1989
I605
sVsport
p1990
I4194
sVpurest
p1991
I3559
sVterror
p1992
I4469
sVconcern
p1993
I872
sVknocked
p1994
I2531
sVfails
p1995
I1652
sVgiver
p1996
I1960
sVvoluntary
p1997
I4789
sVfederal
p1998
I1710
sVsenate
p1999
I3943
sVopening
p2000
I3119
sVdefinite
p2001
I1133
sVcheerfulness
p2002
I711
sVboundaries
p2003
I532
sVoutside
p2004
I3164
sVroots
p2005
I3828
sVdiamonds
p2006
I1213
sVenjoys
p2007
I1489
sVdreamer
p2008
I1336
sVtravels
p2009
I4590
sVnotice
p2010
I3047
sVjobs
p2011
I2467
sVuse
p2012
I4721
sVparent
p2013
I3199
sVspring
p2014
I4200
sVscreen
p2015
I3910
sVpreach
p2016
I3424
sVship
p2017
I4008
sVpluck
p2018
I3353
sVkilling
p2019
I2512
sVblame
p2020
I482
sVcountenance
p2021
I987
sVconcentrate
p2022
I866
sVspare
p2023
I4159
sVhurts
p2024
I2233
sVspark
p2025
I4160
sVcome
p2026
I805
sVthanksgiving
p2027
I4479
sVconcentrated
p2028
I867
sVreaction
p2029
I3623
sVacquiring
p2030
I62
sVuseless
p2031
I4724
sVembarrassment
p2032
I1438
sVsuccesses
p2033
I4330
sVaccording
p2034
I43
sVcontract
p2035
I952
sVtemper
p2036
I4448
sVpray
p2037
I3420
sVamateurs
p2038
I171
sVdisappointment
p2039
I1248
sVsustain
p2040
I4384
sVcompetent
p2041
I846
sVcomes
p2042
I807
sVconsidering
p2043
I916
sVduty
p2044
I1363
sVmadness
p2045
I2742
sVkey
p2046
I2502
sVcancer
p2047
I614
sVbricks
p2048
I557
sVnation'
p2049
I2980
sVpot
p2050
I3397
sVroman
p2051
I3821
sVperiod
p2052
I3261
sVants
p2053
I215
sVresentment
p2054
I3742
sVsatisfaction
p2055
I3879
sVmaintained
p2056
I2749
sVgrants
p2057
I2016
sVstretched
p2058
I4283
sVlearning
p2059
I2593
sVassociated
p2060
I305
sVendeavor
p2061
I1459
sVfruitful
p2062
I1898
sVconsiders
p2063
I917
sVboat
p2064
I503
sVlogic
p2065
I2683
sVcaring
p2066
I632
sVdestroyed
p2067
I1191
sVarts
p2068
I283
sVcompanionship
p2069
I836
sVcares
p2070
I631
sVstretch
p2071
I4282
sVwest
p2072
I4863
sVinformed
p2073
I2355
sVundertake
p2074
I4670
sVmark
p2075
I2773
sVbreath
p2076
I552
sVpunished
p2077
I3554
sVcombined
p2078
I804
sVmotives
p2079
I2941
sVdangers
p2080
I1079
sVwomen
p2081
I4925
sVhardly
p2082
I2104
sVmary
p2083
I2783
sVfig
p2084
I1737
sVwants
p2085
I4812
sVwonderful
p2086
I4929
sVdirection
p2087
I1238
sVeducated
p2088
I1405
sVoffered
p2089
I3101
sVblessing
p2090
I487
sVsincerely
p2091
I4052
sVhits
p2092
I2174
sVwounds
p2093
I4960
sVtiger
p2094
I4521
sVobserve
p2095
I3079
sVwake
p2096
I4801
sVexternal
p2097
I1623
sVshooting
p2098
I4016
sVcareful
p2099
I629
sVsow
p2100
I4155
sVrealities
p2101
I3632
sVcase
p2102
I640
sVdeveloping
p2103
I1204
sVmount
p2104
I2943
sVsane
p2105
I3875
sVcash
p2106
I642
sVinconvenient
p2107
I2321
sVcast
p2108
I643
sVwarning
p2109
I4817
sVovercome
p2110
I3166
sVjoke
p2111
I2474
sVnewspaper
p2112
I3021
sVsituation
p2113
I4065
sVendured
p2114
I1468
sVshort
p2115
I4018
sVunderstand
p2116
I4666
sVtouches
p2117
I4561
sVperson'
p2118
I3278
sVcharacteristics
p2119
I692
sVprayer
p2120
I3421
sVengaged
p2121
I1478
sVtelephone
p2122
I4443
sVquiet
p2123
I3586
sVmiddle
p2124
I2854
sVbias
p2125
I460
sVembrace
p2126
I1439
sVmillionaire
p2127
I2864
sVsatan
p2128
I3878
sVcommanded
p2129
I814
sVnation
p2130
I2979
sVproperty
p2131
I3525
sVtechnology
p2132
I4439
sVeveryday
p2133
I1551
sVworry
p2134
I4950
sVdifferent
p2135
I1223
sVrevolutions
p2136
I3782
sVdevelop
p2137
I1202
sVauthor
p2138
I347
sVinquire
p2139
I2372
sVinsofar
p2140
I2383
sVgranted
p2141
I2014
sVbowl
p2142
I535
sVs
I3851
sVintelligently
p2143
I2410
sVya
p2144
I4977
sVacquaintances
p2145
I59
sVinquiry
p2146
I2373
sVarguments
p2147
I262
sVweakness
p2148
I4838
sVgrain
p2149
I2006
sVstepped
p2150
I4245
sVevents
p2151
I1547
sVstatus
p2152
I4233
sVnoble
p2153
I3031
sVfinish
p2154
I1756
sVcenturies
p2155
I669
sVclosest
p2156
I780
sVsickness
p2157
I4031
sVapplaud
p2158
I235
sVnest
p2159
I3015
sVrefusal
p2160
I3673
sVdriver
p2161
I1348
sVdrives
p2162
I1349
sVcompanion
p2163
I834
sVdriven
p2164
I1347
sVpersons
p2165
I3283
sVrespected
p2166
I3754
sVancestors
p2167
I188
sVwant
p2168
I4809
sVdelicate
p2169
I1141
sVstatue
p2170
I4232
sVconquered
p2171
I901
sVclimbing
p2172
I771
sVweep
p2173
I4855
sVtotally
p2174
I4558
sVnobly
p2175
I3034
sVweave
p2176
I4849
sVlonging
p2177
I2692
sVdrain
p2178
I1326
sVmodes
p2179
I2907
sVbondage
p2180
I513
sVshared
p2181
I3995
sVexpression
p2182
I1619
sVrandom
p2183
I3608
sVconstitutional
p2184
I927
sVmagical
p2185
I2744
sVwillingness
p2186
I4887
sVsevere
p2187
I3980
sVcosts
p2188
I982
sVsolve
p2189
I4119
sVrelief
p2190
I3699
sVbottle
p2191
I529
sVinability
p2192
I2304
sVtherapy
p2193
I4484
sVmodel
p2194
I2901
sVreward
p2195
I3783
sVbodies
p2196
I505
sVcharged
p2197
I695
sVgates
p2198
I1930
sVpeace
p2199
I3238
sVwriters
p2200
I4968
sVgenerally
p2201
I1937
sVactions
p2202
I67
sVfoot
p2203
I1820
sVcivilized
p2204
I757
sVcease
p2205
I655
sVaspect
p2206
I291
sVtouch
p2207
I4559
sVreality
p2208
I3633
sVinjuries
p2209
I2365
sVguides
p2210
I2062
sVhalfway
p2211
I2077
sVblow
p2212
I497
sVdeath
p2213
I1097
sVgentleness
p2214
I1946
sVapplication
p2215
I239
sVthinking
p2216
I4492
sVrose
p2217
I3830
sVremember
p2218
I3709
sVsenseless
p2219
I3949
sVwet
p2220
I4865
sVimprovement
p2221
I2300
sVcolor
p2222
I798
sVlets
p2223
I2617
sVsetting
p2224
I3975
sVpile
p2225
I3315
sVbigger
p2226
I463
sVoverthrow
p2227
I3170
sVplenty
p2228
I3352
sVrole
p2229
I3816
sVstruck
p2230
I4300
sVskies
p2231
I4069
sVkingdom
p2232
I2521
sVstarving
p2233
I4224
sVaspects
p2234
I292
sVholding
p2235
I2176
sVkills
p2236
I2513
sVrepresents
p2237
I3732
sVread
p2238
I3624
sVruler
p2239
I3841
sVservitude
p2240
I3972
sVgonna
p2241
I1986
sVdark
p2242
I1083
sVearnest
p2243
I1378
sVtraffic
p2244
I4574
sVinsist
p2245
I2381
sVlistening
p2246
I2666
sVvacuum
p2247
I4733
sVconfined
p2248
I888
sVmob
p2249
I2899
sVaccepted
p2250
I28
sVdisappointed
p2251
I1247
sVscientist
p2252
I3906
sVbravery
p2253
I545
sVfurniture
p2254
I1914
sVmeaning
p2255
I2807
sVtoughness
p2256
I4565
sVfortune
p2257
I1857
sVstranger
p2258
I4272
sVkennedy
p2259
I2500
sVcollective
p2260
I796
sVtwin
p2261
I4640
sVmiracle
p2262
I2876
sVlightning
p2263
I2644
sVfacing
p2264
I1640
sVchamber
p2265
I680
sVaudience
p2266
I346
sVwoman'
p2267
I4924
sVsuperiority
p2268
I4358
sVlaughing
p2269
I2567
sVoccasions
p2270
I3090
sVresolved
p2271
I3749
sVserved
p2272
I3967
sVtower
p2273
I4566
sVpassionate
p2274
I3221
sVtrying
p2275
I4630
sVsharp
p2276
I3997
sVfalsehood
p2277
I1667
sVburdens
p2278
I588
sVjews
p2279
I2465
sVunto
p2280
I4711
sVtruths
p2281
I4628
sVuncle
p2282
I4658
sVmoving
p2283
I2953
sVcompetition
p2284
I847
sVslavery
p2285
I4077
sVperspiration
p2286
I3285
sVshallow
p2287
I3989
sVrage
p2288
I3600
sVmanhood
p2289
I2764
sVimages
p2290
I2263
sVintend
p2291
I2411
sVdivine
p2292
I1295
sVorganizing
p2293
I3153
sVthinks
p2294
I4493
sVaccomplice
p2295
I35
sVeloquence
p2296
I1433
sVpassions
p2297
I3223
sVaccidental
p2298
I32
sVwindows
p2299
I4893
sVsoothing
p2300
I4134
sVfrees
p2301
I1882
sVmemories
p2302
I2830
sVhighest
p2303
I2163
sVlend
p2304
I2609
sVrecorded
p2305
I3660
sVlegal
p2306
I2603
sVconservative
p2307
I910
sVspeed
p2308
I4172
sVmodels
p2309
I2902
sVthroat
p2310
I4508
sVcritical
p2311
I1036
sVexit
p2312
I1593
sVexpressing
p2313
I1618
sVmoderate
p2314
I2903
sVknife
p2315
I2529
sVfreed
p2316
I1879
sVdestroys
p2317
I1193
sVmarriage
p2318
I2777
sVfables
p2319
I1634
sVtomorrow
p2320
I4545
sVreasonable
p2321
I3644
sVbusiness
p2322
I597
sVintimate
p2323
I2426
sVequivalent
p2324
I1517
sVcommunicate
p2325
I827
sVbroken
p2326
I570
sVmeets
p2327
I2826
sVleadership
p2328
I2582
sVutter
p2329
I4730
sVvisits
p2330
I4783
sVinnocence
p2331
I2370
sVresurrection
p2332
I3767
sVexciting
p2333
I1579
sVthrow
p2334
I4510
sVshortest
p2335
I4019
sVcomparison
p2336
I841
sVstone
p2337
I4258
sVcentral
p2338
I668
sVace
p2339
I49
sVoh
p2340
I3108
sVroar
p2341
I3812
sVintolerable
p2342
I2427
sVindustry
p2343
I2342
sVcapable
p2344
I619
sVfavorite
p2345
I1698
sVdevelops
p2346
I1206
sVmeal
p2347
I2804
sVpractical
p2348
I3411
sVtremendous
p2349
I4600
sVboldly
p2350
I509
sVjourney
p2351
I2478
sVgreatly
p2352
I2032
sVneighbor
p2353
I3009
sVdiscrimination
p2354
I1265
sVmixed
p2355
I2897
sVlasting
p2356
I2560
sVwills
p2357
I4888
sVroad
p2358
I3810
sVtribe
p2359
I4604
sVquietly
p2360
I3587
sVlands
p2361
I2553
sVsuicide
p2362
I4346
sVburning
p2363
I593
sVfollows
p2364
I1811
sVwhites
p2365
I4873
sVcommunication
p2366
I828
sVimage
p2367
I2262
sVblessed
p2368
I486
sVstruggle
p2369
I4302
sVsecure
p2370
I3925
sVrising
p2371
I3805
sVdetermine
p2372
I1198
sVdreaming
p2373
I1338
sVannoys
p2374
I202
sVhappening
p2375
I2093
sVnowadays
p2376
I3055
sVstare
p2377
I4217
sVrewarded
p2378
I3784
sVprepare
p2379
I3441
sVarea
p2380
I257
sVdistinctions
p2381
I1285
sVrough
p2382
I3832
sVbrute
p2383
I577
sVchristianity
p2384
I742
sVstrip
p2385
I4291
sVstart
p2386
I4219
sVcats
p2387
I649
sVlow
p2388
I2720
sVlot
p2389
I2706
sVnakedness
p2390
I2975
sVpoliteness
p2391
I3370
sVdecisive
p2392
I1112
sVvalley
p2393
I4736
sVbubble
p2394
I578
sVfish
p2395
I1764
sVassumes
p2396
I309
sVtreat
p2397
I4594
sVproject
p2398
I3515
sVverb
p2399
I4754
sVmischief
p2400
I2879
sVcomplete
p2401
I851
sVfanatic
p2402
I1675
sVsigns
p2403
I4040
sVreduce
p2404
I3663
sVjudging
p2405
I2485
sVpleased
p2406
I3346
sVsore
p2407
I4135
sVspider
p2408
I4179
sVphilosophers
p2409
I3297
sVstatesman
p2410
I4229
sVended
p2411
I1461
sVsucceeded
p2412
I4327
sVhappier
p2413
I2095
sVmice
p2414
I2852
sVpromote
p2415
I3520
sVanother'
p2416
I204
sVfaster
p2417
I1688
sVabused
p2418
I23
sVpull
p2419
I3552
sVhire
p2420
I2168
sVwaste
p2421
I4822
sVapplying
p2422
I242
sVromantic
p2423
I3822
sVmortals
p2424
I2933
sVpotato
p2425
I3398
sVnearest
p2426
I2993
sVtreasure
p2427
I4592
sVsadness
p2428
I3857
sVtaught
p2429
I4426
sVnative
p2430
I2983
sVdirty
p2431
I1242
sVgrasp
p2432
I2018
sVgrass
p2433
I2020
sVbeliefs
p2434
I437
sVaffection
p2435
I118
sVexpect
p2436
I1595
sVcastles
p2437
I644
sVgone
p2438
I1985
sVmoney
p2439
I2914
sVad
p2440
I76
sVjohnny
p2441
I2470
sVtaste
p2442
I4423
sVcertain
p2443
I671
sVcensor
p2444
I663
sVdeep
p2445
I1119
sVfellow
p2446
I1722
sVimagination
p2447
I2265
sVexamine
p2448
I1564
sVenable
p2449
I1450
sVgoverned
p2450
I1997
sVplanets
p2451
I3329
sVwalks
p2452
I4806
sVcontrolled
p2453
I957
sVdeed
p2454
I1117
sVhorse
p2455
I2207
sVflock
p2456
I1789
sVfilm
p2457
I1746
sVcream
p2458
I1014
sVhit
p2459
I2173
sVabyss
p2460
I24
sVmaybe
p2461
I2803
sVreceive
p2462
I3649
sVwild
p2463
I4883
sVenglishman
p2464
I1483
sVidiot
p2465
I2248
sVdeserve
p2466
I1176
sVluckier
p2467
I2728
sVabolish
p2468
I7
sVfield
p2469
I1733
sVsummit
p2470
I4350
sVmathematics
p2471
I2796
sVfools
p2472
I1819
sVincomprehensible
p2473
I2319
sVthousand
p2474
I4501
sVpreoccupation
p2475
I3439
sVpoor
p2476
I3377
sVtrip
p2477
I4610
sVformed
p2478
I1848
sVtitle
p2479
I4534
sVhey
p2480
I2157
sVcongress
p2481
I896
sVseparate
p2482
I3955
sVshelter
p2483
I4002
sVsymbol
p2484
I4399
sVtime
p2485
I4525
sVdrift
p2486
I1342
sVthanks
p2487
I4478
sVgifts
p2488
I1956
sVimportant
p2489
I2288
sVtrack
p2490
I4569
sVbrotherhood
p2491
I572
sVchris
p2492
I738
sVprudent
p2493
I3548
sVpool
p2494
I3376
sVmissed
p2495
I2888
sVbuilding
p2496
I582
sVneighbour
p2497
I3011
sVsomeone'
p2498
I4125
sVapplause
p2499
I236
sVcalls
p2500
I608
sVwife
p2501
I4882
sVvalues
p2502
I4741
sVodds
p2503
I3097
sVapathy
p2504
I221
sVmask
p2505
I2784
sVsaved
p2506
I3886
sVmoonlight
p2507
I2925
sVimpossibility
p2508
I2292
sVpassed
p2509
I3217
sVmass
p2510
I2785
sVremarkable
p2511
I3706
sVmean
p2512
I2805
sVresolution
p2513
I3747
sVoriginal
p2514
I3156
sVminister
p2515
I2870
sVrepresent
p2516
I3731
sVliar
p2517
I2623
sVconsider
p2518
I912
sVceases
p2519
I657
sVcaused
p2520
I652
sVbeware
p2521
I459
sVlack
p2522
I2545
sVdollar
p2523
I1308
sVworms
p2524
I4946
sVmonth
p2525
I2920
sVfounded
p2526
I1865
sVceased
p2527
I656
sVsubtle
p2528
I4325
sVrun
p2529
I3844
sVinvariably
p2530
I2433
sVdish
p2531
I1273
sVfollow
p2532
I1808
sVmeditation
p2533
I2821
sVdecisions
p2534
I1111
sVchildren
p2535
I726
sVcauses
p2536
I653
sVcarpet
p2537
I633
sVdreadful
p2538
I1333
sVglimpse
p2539
I1968
sVrights
p2540
I3801
sVreferring
p2541
I3665
sVtv
p2542
I4637
sVweed
p2543
I4852
sVlaid
p2544
I2549
sVopportunities
p2545
I3129
sVgood
p2546
I1987
sVprophets
p2547
I3527
sVtail
p2548
I4408
sVmother'
p2549
I2936
sVchewing
p2550
I718
sVpresent
p2551
I3444
sVth
p2552
I4475
sVhealth
p2553
I2126
sVenjoying
p2554
I1486
sVweeks
p2555
I4854
sVactivities
p2556
I69
sVwoman
p2557
I4923
sVpoint
p2558
I3362
sVworse
p2559
I4952
sVshalt
p2560
I3990
sVsitting
p2561
I4064
sVfar
p2562
I1680
sVfat
p2563
I1689
sVeveryone'
p2564
I1552
sVtomorrow'
p2565
I4546
sVnovel
p2566
I3053
sVworst
p2567
I4954
sVminded
p2568
I2867
sVdecide
p2569
I1107
sVfall
p2570
I1662
sVawful
p2571
I368
sVwinning
p2572
I4901
sVdifference
p2573
I1221
sVcondition
p2574
I880
sVtreating
p2575
I4596
sVcheerful
p2576
I709
sVmild
p2577
I2858
sVheaven
p2578
I2136
sVobvious
p2579
I3085
sVmothers
p2580
I2937
sVcelebrity
p2581
I659
sVlist
p2582
I2662
sVjoined
p2583
I2473
sVgrandfather
p2584
I2010
sVlarge
p2585
I2557
sVwilt
p2586
I4889
sVsand
p2587
I3873
sVadjust
p2588
I86
sVliars
p2589
I2624
sVtruer
p2590
I4620
sVsmall
p2591
I4088
sVbiological
p2592
I468
sVtender
p2593
I4458
sVquicker
p2594
I3583
sVfence
p2595
I1728
sVchrist'
p2596
I740
sVstreets
p2597
I4277
sVted
p2598
I4440
sVendures
p2599
I1469
sVpast
p2600
I3225
sVrate
p2601
I3616
sVinvention
p2602
I2436
sVdesign
p2603
I1178
sVhonourable
p2604
I2196
sVlawyer
p2605
I2574
sVpass
p2606
I3215
sVharder
p2607
I2102
sVcreatures
p2608
I1024
sVconscience
p2609
I903
sVlife'
p2610
I2635
sVdefence
p2611
I1126
sVhesitation
p2612
I2156
sVbarrier
p2613
I392
sVrichard
p2614
I3788
sVclock
p2615
I774
sVdeeply
p2616
I1122
sVsides
p2617
I4032
sVcircumstance
p2618
I749
sVbrief
p2619
I560
sVemotions
p2620
I1445
sVmilk
p2621
I2862
sVcrush
p2622
I1048
sVpublic
p2623
I3551
sVversion
p2624
I4756
sVattitudes
p2625
I338
sVx
I4976
sVundecided
p2626
I4663
sVscientists
p2627
I3907
sVlearned
p2628
I2592
sVeverlasting
p2629
I1549
sVguns
p2630
I2067
sVhandy
p2631
I2088
sVmovement
p2632
I2949
sVdwells
p2633
I1366
sVchristian
p2634
I741
sVthreatened
p2635
I4506
sVloose
p2636
I2697
sVanswers
p2637
I208
sVprovides
p2638
I3546
sVhours
p2639
I2215
sVscum
p2640
I3912
sVtracks
p2641
I4570
sVdisastrous
p2642
I1250
sVtolerance
p2643
I4540
sVexcess
p2644
I1573
sVdirections
p2645
I1239
sVpraises
p2646
I3418
sVstrong
p2647
I4296
sVrespect
p2648
I3753
sVtragedy
p2649
I4575
sVfantasies
p2650
I1678
sVarena
p2651
I258
sVsearch
p2652
I3914
sVbible
p2653
I461
sVcreeps
p2654
I1027
sVridiculous
p2655
I3796
sVahead
p2656
I144
sVextraordinary
p2657
I1626
sVinspired
p2658
I2386
sVlosses
p2659
I2704
sVallows
p2660
I165
sVexperience
p2661
I1603
sVsoldier
p2662
I4110
sVairport
p2663
I152
sVextremes
p2664
I1629
sVadvertising
p2665
I110
sVsurvival
p2666
I4379
sVmisery
p2667
I2884
sVaction
p2668
I66
sVskepticism
p2669
I4068
sVluck
p2670
I2727
sVinspires
p2671
I2387
sVfaculties
p2672
I1644
sVspoil
p2673
I4189
sVflash
p2674
I1776
sVdepart
p2675
I1160
sVmembers
p2676
I2829
sVfamily
p2677
I1673
sVsuddenly
p2678
I4335
sVcowardly
p2679
I1005
sVsolitude
p2680
I4116
sVafrica
p2681
I128
sVmarriages
p2682
I2778
sVyoung
p2683
I4995
sVknow'
p2684
I2534
sVaimed
p2685
I148
sVtrained
p2686
I4578
sVtoys
p2687
I4568
sVpulls
p2688
I3553
sVextinction
p2689
I1624
sVarmed
p2690
I268
sVmistress
p2691
I2895
sVselect
p2692
I3937
sVreadily
p2693
I3626
sVliterary
p2694
I2670
sVconventional
p2695
I962
sVwanted
p2696
I4810
sVeye
p2697
I1630
sVproceed
p2698
I3487
sVinjure
p2699
I2363
sVintense
p2700
I2413
sVdestination
p2701
I1188
sVsingle
p2702
I4056
sVfinally
p2703
I1748
sVcomparing
p2704
I840
sVpraised
p2705
I3417
sVfragrance
p2706
I1872
sVendowed
p2707
I1464
sVmysterious
p2708
I2968
sVinjury
p2709
I2366
sVunthinkable
p2710
I4710
sVachieving
p2711
I55
sVminor
p2712
I2872
sVextent
p2713
I1622
sVflat
p2714
I1778
sVflaw
p2715
I1781
sVdoor
p2716
I1313
sVknows
p2717
I2538
sVpurse
p2718
I3563
sVcompany
p2719
I837
sVexcuse
p2720
I1580
sVflag
p2721
I1773
sVcontrolling
p2722
I958
sVbasically
p2723
I397
sVbroke
p2724
I569
sVparticular
p2725
I3206
sVknown
p2726
I2537
sVfoundations
p2727
I1864
sVhurry
p2728
I2231
sVproducing
p2729
I3495
sVsuffered
p2730
I4337
sVglad
p2731
I1963
sVtown
p2732
I4567
sVlust
p2733
I2732
sVkeeping
p2734
I2498
sVinclude
p2735
I2314
sVunbearable
p2736
I4653
sVthorns
p2737
I4496
sVhour
p2738
I2214
sVstrain
p2739
I4270
sVrecall
p2740
I3648
sVguards
p2741
I2057
sVoffended
p2742
I3098
sVremain
p2743
I3704
sVsudden
p2744
I4334
sVsent
p2745
I3952
sVevolved
p2746
I1559
sVlearn
p2747
I2591
sVabandon
p2748
I0
sVmale
p2749
I2756
sVspontaneous
p2750
I4192
sVmarble
p2751
I2770
sVhistory
p2752
I2172
sVbeautiful
p2753
I418
sVstubborn
p2754
I4304
sVcompare
p2755
I838
sVbravely
p2756
I544
sVstated
p2757
I4226
sVlives
p2758
I2675
sVgravely
p2759
I2025
sVshare
p2760
I3994
sVaccept
p2761
I25
sVrobs
p2762
I3813
sVautumn
p2763
I353
sVsphere
p2764
I4178
sVprotects
p2765
I3535
sVattain
p2766
I330
sVarise
p2767
I263
sVwalked
p2768
I4804
sVgallon
p2769
I1922
sVcultivate
p2770
I1050
sVdress
p2771
I1340
sVspecies
p2772
I4168
sVcondemn
p2773
I878
sVhuge
p2774
I2218
sVneeds
p2775
I3003
sVbeef
p2776
I423
sVcourt
p2777
I997
sVgoal
p2778
I1974
sVneedy
p2779
I3004
sVtechnological
p2780
I4438
sVplans
p2781
I3332
sVbreaking
p2782
I549
sVstayed
p2783
I4235
sVfame
p2784
I1669
sVoccasionally
p2785
I3089
sVcling
p2786
I772
sVreject
p2787
I3685
sVprejudice
p2788
I3437
sVperil
p2789
I3260
sVstir
p2790
I4253
sVcreature
p2791
I1023
sVsimplicity
p2792
I4049
sVplant
p2793
I3333
sVokay
p2794
I3111
sVintended
p2795
I2412
sVcharms
p2796
I702
sVsuppose
p2797
I4364
sVadvice
p2798
I111
sVlover'
p2799
I2715
sVderived
p2800
I1171
sVquestioning
p2801
I3580
sVreflect
p2802
I3667
sVmended
p2803
I2836
sVtries
p2804
I4608
sVplane
p2805
I3327
sVlighting
p2806
I2642
sVadventure
p2807
I107
sVcoming
p2808
I812
sVethics
p2809
I1541
sVbloom
p2810
I494
sVresponse
p2811
I3756
sVplanet
p2812
I3328
sVrefuse
p2813
I3674
sVcriticize
p2814
I1038
sVchiefly
p2815
I721
sVcrowded
p2816
I1043
sVcoat
p2817
I788
sVquoted
p2818
I3594
sVdoctor
p2819
I1298
sVeats
p2820
I1393
sVshore
p2821
I4017
sVwishes
p2822
I4912
sVego
p2823
I1418
sVdread
p2824
I1332
sVfundamental
p2825
I1911
sVmedia
p2826
I2817
sVbanks
p2827
I387
sVpleasure
p2828
I3349
sVdream
p2829
I1334
sVplaying
p2830
I3343
sVreplied
p2831
I3728
sVyard
p2832
I4979
sVhelp
p2833
I2145
sVseptember
p2834
I3959
sVdeveloped
p2835
I1203
sVflowers
p2836
I1795
sVstays
p2837
I4237
sVmission
p2838
I2890
sVtempt
p2839
I4453
sVtrade
p2840
I4571
sVheld
p2841
I2143
sVattitude
p2842
I337
sVpaper
p2843
I3194
sVcommittee
p2844
I822
sVcommitted
p2845
I821
sVexistence
p2846
I1590
sVsmiling
p2847
I4097
sVrocks
p2848
I3815
sVdrinking
p2849
I1344
sVarrogant
p2850
I276
sVshock
p2851
I4011
sVrapidly
p2852
I3611
sVprobability
p2853
I3483
sVpossessions
p2854
I3391
sVenergies
p2855
I1474
sVinward
p2856
I2445
sVsolving
p2857
I4121
sVdeeds
p2858
I1118
sVbosom
p2859
I526
sVactually
p2860
I75
sVlate
p2861
I2562
sVharmless
p2862
I2107
sVabsence
p2863
I9
sVindividuals
p2864
I2339
sVminute
p2865
I2874
sVradical
p2866
I3598
sVspeech
p2867
I4170
sVpaths
p2868
I3227
sVgovernments
p2869
I2000
sVsauce
p2870
I3883
sValter
p2871
I166
sVfiner
p2872
I1752
sVfool
p2873
I1815
sVseventy
p2874
I3979
sVevening
p2875
I1545
sVreturn
p2876
I3772
sVseeking
p2877
I3931
sVfood
p2878
I1814
sVye
p2879
I4980
sVprejudices
p2880
I3438
sVprimary
p2881
I3469
sVobeyed
p2882
I3070
sVfootball
p2883
I1821
sVwalls
p2884
I4808
sVpreservation
p2885
I3447
sVcommunities
p2886
I832
sVsuffice
p2887
I4341
sVremedy
p2888
I3708
sVtraveled
p2889
I4589
sVcomplain
p2890
I849
sVassociation
p2891
I306
sVmystery
p2892
I2969
sVeasily
p2893
I1387
sVwanting
p2894
I4811
sVgets
p2895
I1951
sVhook
p2896
I2197
sVfully
p2897
I1907
sVpresented
p2898
I3445
sVstatement
p2899
I4227
sVbless
p2900
I485
sVdid
p2901
I1215
sVhabits
p2902
I2072
sVstopped
p2903
I4262
sVgrandeur
p2904
I2009
sVturns
p2905
I4636
sVinherent
p2906
I2359
sVfairy
p2907
I1658
sVfriendship
p2908
I1890
sVmarry
p2909
I2780
sVspiritually
p2910
I4183
sVheavy
p2911
I2139
sVweek
p2912
I4853
sVharm
p2913
I2105
sVfragile
p2914
I1871
sVengland
p2915
I1481
sVmental
p2916
I2837
sVweight
p2917
I4858
sVgeneration
p2918
I1938
sVhouse
p2919
I2216
sVenergy
p2920
I1475
sVhard
p2921
I2101
sVoppressed
p2922
I3135
sVidea
p2923
I2240
sVused
p2924
I4722
sVeve
p2925
I1544
sVoil
p2926
I3109
sVconnect
p2927
I897
sVfist
p2928
I1766
sVoperation
p2929
I3124
sVperpetually
p2930
I3271
sVabsurdity
p2931
I19
sVanarchy
p2932
I187
sVreally
p2933
I3639
sVstands
p2934
I4215
sVflower
p2935
I1794
sValcohol
p2936
I155
sVwondered
p2937
I4928
sVsolved
p2938
I4120
sVunnatural
p2939
I4702
sVchildish
p2940
I725
sVsurrounded
p2941
I4378
sVtemporary
p2942
I4452
sVresearch
p2943
I3740
sVenjoyment
p2944
I1487
sVacting
p2945
I65
sVregret
p2946
I3681
sVfountain
p2947
I1867
sVhill
p2948
I2166
sVparadise
p2949
I3196
sVprint
p2950
I3476
sVfortitude
p2951
I1855
sVamerica'
p2952
I180
sVissue
p2953
I2453
sVoccurs
p2954
I3094
sVhighway
p2955
I2165
sVhumble
p2956
I2222
sVass
p2957
I297
sVdrink
p2958
I1343
sVboldness
p2959
I510
sVbelief
p2960
I436
sVdirt
p2961
I1241
sVteam
p2962
I4435
sVforgive
p2963
I1837
sVtruly
p2964
I4622
sVlike
p2965
I2646
sVpleasant
p2966
I3345
sVdifficulty
p2967
I1227
sVreason
p2968
I3643
sVbase
p2969
I393
sVbrightest
p2970
I562
sVdisposition
p2971
I1279
sVimagine
p2972
I2267
sVask
p2973
I286
sVteach
p2974
I4430
sVrises
p2975
I3804
sVbeginning
p2976
I427
sVheroic
p2977
I2154
sVjew
p2978
I2463
sVinfluences
p2979
I2353
sVdefinition
p2980
I1134
sVunique
p2981
I4688
sVbenefits
p2982
I451
sVthread
p2983
I4503
sVjust
p2984
I2491
sVcomputers
p2985
I862
sVpersuading
p2986
I3288
sVrunning
p2987
I3845
sVround
p2988
I3833
sVterribly
p2989
I4466
sVamerican
p2990
I181
sVfruit
p2991
I1897
sVexpecting
p2992
I1599
sVthreat
p2993
I4504
sVautomobile
p2994
I352
sVconsequence
p2995
I907
sVfallen
p2996
I1663
sVthrows
p2997
I4513
sVfeed
p2998
I1712
sVmajor
p2999
I2750
sVdont
p3000
I1312
sVforwards
p3001
I1860
sVsomeday
p3002
I4124
sVfeel
p3003
I1715
sVhistorian
p3004
I2169
sVnumber
p3005
I3058
sVfancy
p3006
I1677
sVantiquity
p3007
I214
sVfeet
p3008
I1719
sVfierce
p3009
I1735
sVbrave
p3010
I543
sVdefects
p3011
I1125
sVchanging
p3012
I687
sVwages
p3013
I4796
sVheights
p3014
I2142
sVmiss
p3015
I2887
sVpledge
p3016
I3351
sVpasses
p3017
I3218
sVdiffer
p3018
I1220
sVparis
p3019
I3201
sVheads
p3020
I2122
sVguest
p3021
I2059
sVwatches
p3022
I4825
sVpowerless
p3023
I3409
sVblossom
p3024
I495
sVdivorce
p3025
I1297
sVmoderately
p3026
I2904
sVobedience
p3027
I3068
sVconstruct
p3028
I928
sVtradition
p3029
I4572
sVpaint
p3030
I3185
sVassumption
p3031
I310
sVsmile
p3032
I4095
sVpains
p3033
I3184
sVsigh
p3034
I4033
sVreverence
p3035
I3778
sVmaster
p3036
I2787
sVaristocracy
p3037
I265
sVstore
p3038
I4264
sVjustly
p3039
I2496
sVmuscles
p3040
I2960
sVimperfect
p3041
I2284
sVoption
p3042
I3140
sVglow
p3043
I1973
sVteacher
p3044
I4431
sVhotel
p3045
I2213
sVpark
p3046
I3202
sVimmediate
p3047
I2273
sVobsolete
p3048
I3081
sVappreciation
p3049
I246
sVtreasures
p3050
I4593
sVboredom
p3051
I521
sVconsult
p3052
I930
sVrain
p3053
I3601
sVtranslation
p3054
I4586
sVbelieve
p3055
I438
sVconvinced
p3056
I968
sVgrace
p3057
I2003
sVreflection
p3058
I3669
sVking
p3059
I2520
sVkind
p3060
I2514
sVb
I371
sVdetermines
p3061
I1200
sVkindly
p3062
I2517
sVdouble
p3063
I1317
sVanticipate
p3064
I211
sVinstruction
p3065
I2399
sVthinker
p3066
I4491
sVaims
p3067
I150
sVdefends
p3068
I1128
sVstates
p3069
I4228
sVdetermined
p3070
I1199
sVarchitect
p3071
I255
sVrisks
p3072
I3807
sVsole
p3073
I4112
sVkindle
p3074
I2515
sVtreated
p3075
I4595
sVdeclare
p3076
I1114
sVmotivation
p3077
I2939
sVobstacles
p3078
I3083
sVminds
p3079
I2869
sVexert
p3080
I1585
sVvalor
p3081
I4737
sVfights
p3082
I1740
sVages
p3083
I133
sVcrazy
p3084
I1013
sVlawful
p3085
I2572
sVrewards
p3086
I3785
sVroom
p3087
I3825
sValike
p3088
I158
sVsentences
p3089
I3954
sVconcentration
p3090
I868
sVaged
p3091
I132
sVorgans
p3092
I3154
sVvulnerable
p3093
I4794
sVsell
p3094
I3941
sVlie
p3095
I2632
sVnights
p3096
I3027
sVbuilt
p3097
I585
sVdancing
p3098
I1076
sVpartly
p3099
I3210
sVnaked
p3100
I2974
sVself
p3101
I3938
sVtired
p3102
I4531
sVport
p3103
I3381
sVhappily
p3104
I2097
sVinternal
p3105
I2421
sVgrew
p3106
I2039
sVbuild
p3107
I581
sVfrail
p3108
I1873
sVfinding
p3109
I1749
sVrequire
p3110
I3737
sVtool
p3111
I4551
sVuniversities
p3112
I4694
sVplay
p3113
I3339
sVadded
p3114
I79
sVelectric
p3115
I1423
sVprogrammers
p3116
I3510
sVquote
p3117
I3593
sVeggs
p3118
I1417
sVmeasures
p3119
I2814
sVreach
p3120
I3619
sVsystems
p3121
I4405
sVdepths
p3122
I1169
sVcharm
p3123
I700
sVplan
p3124
I3326
sVeaten
p3125
I1391
sVposition
p3126
I3383
sVservices
p3127
I3970
sVaccepting
p3128
I29
sVbarbarism
p3129
I389
sVextremely
p3130
I1628
sVrevolutionary
p3131
I3781
sVachievement
p3132
I52
sVconstitution
p3133
I926
sVunderstands
p3134
I4668
sVcorrupts
p3135
I980
sVseize
p3136
I3935
sVspends
p3137
I4176
sVclear
p3138
I764
sVpopularity
p3139
I3379
sVcover
p3140
I999
sVunreasonable
p3141
I4707
sVpreaching
p3142
I3426
sVcharitable
p3143
I696
sVclean
p3144
I763
sVfashions
p3145
I1686
sVweigh
p3146
I4857
sVjustify
p3147
I2495
sVorganism
p3148
I3149
sVinstitutions
p3149
I2397
sVlying
p3150
I2735
sVfavorable
p3151
I1697
sVstones
p3152
I4259
sVperseverance
p3153
I3273
sVdespise
p3154
I1186
sVthink
p3155
I4490
sVgolf
p3156
I1984
sVphenomenon
p3157
I3295
sVgold
p3158
I1982
sVsparrow
p3159
I4162
sVauthors
p3160
I349
sVnoblest
p3161
I3033
sVsting
p3162
I4252
sVrelation
p3163
I3691
sVcarefully
p3164
I630
sVheavens
p3165
I2137
sVfine
p3166
I1751
sVoccupation
p3167
I3091
sVimpact
p3168
I2280
sVgiant
p3169
I1953
sVflattery
p3170
I1780
sVshouldst
p3171
I4023
sVdepended
p3172
I1163
sVdividing
p3173
I1294
sVjustice
p3174
I2492
sVnervous
p3175
I3014
sVruin
p3176
I3837
sVflesh
p3177
I1786
sVunhappy
p3178
I4685
sVpenalty
p3179
I3243
sVabiding
p3180
I2
sVidiots
p3181
I2249
sVindian
p3182
I2330
sVbetray
p3183
I455
sVpretty
p3184
I3457
sVfactor
p3185
I1642
sVcircle
p3186
I747
sVindifference
p3187
I2333
sVgiants
p3188
I1954
sVunpleasant
p3189
I4704
sVdominant
p3190
I1310
sVgains
p3191
I1921
sVmercy
p3192
I2839
sVdependent
p3193
I1165
sVbeams
p3194
I408
sVexpress
p3195
I1615
sVsensible
p3196
I3951
sVtrees
p3197
I4599
sVobtain
p3198
I3084
sVfamous
p3199
I1674
sVavarice
p3200
I355
sVcourage
p3201
I994
sVbreast
p3202
I551
sVclosely
p3203
I777
sVcompass
p3204
I842
sVinstinctive
p3205
I2394
sVpersonally
p3206
I3282
sVfrightening
p3207
I1894
sVenemy
p3208
I1472
sVcatches
p3209
I647
sVhumorist
p3210
I2226
sVprogressive
p3211
I3514
sVlavish
p3212
I2570
sVpleasures
p3213
I3350
sVtemple
p3214
I4450
sVspeaks
p3215
I4166
sVviolent
p3216
I4774
sVremove
p3217
I3716
sVproclaim
p3218
I3490
sVsacrifices
p3219
I3854
sVcommon
p3220
I824
sVactivity
p3221
I70
sVkill
p3222
I2509
sVgospel
p3223
I1991
sVriver
p3224
I3808
sVrear
p3225
I3642
sVwrote
p3226
I4974
sVrooms
p3227
I3826
sVinsane
p3228
I2374
sVspell
p3229
I4173
sVset
p3230
I3973
sVart
p3231
I278
sVcynical
p3232
I1066
sVcreator
p3233
I1022
sVthrowing
p3234
I4511
sVintelligence
p3235
I2408
sVtalks
p3236
I4418
sVridicule
p3237
I3795
sVpersuade
p3238
I3286
sVpotent
p3239
I3400
sVsex
p3240
I3981
sVachieves
p3241
I54
sVculture
p3242
I1052
sVlion
p3243
I2660
sVdefense
p3244
I1129
sVdumb
p3245
I1360
sVsea
p3246
I3913
sVsacred
p3247
I3852
sVclose
p3248
I775
sVbark
p3249
I391
sVcomfort
p3250
I808
sVvengeance
p3251
I4752
sVfeared
p3252
I1702
sVknees
p3253
I2527
sVpractice
p3254
I3413
sVlearns
p3255
I2594
sVlearnt
p3256
I2595
sVdesires
p3257
I1182
sVexpert
p3258
I1608
sVmovie
p3259
I2951
sVleg
p3260
I2602
sVfamiliarity
p3261
I1671
sVsmallest
p3262
I4090
sVvarious
p3263
I4745
sVhappiness
p3264
I2098
sVunknowable
p3265
I4697
sVwoe
p3266
I4921
sVcontrary
p3267
I955
sVburned
p3268
I592
sVconditions
p3269
I881
sVcorruption
p3270
I979
sVcompliment
p3271
I856
sVsupposed
p3272
I4365
sVavailable
p3273
I354
sVlatin
p3274
I2564
sVrecently
p3275
I3654
sVcreating
p3276
I1018
sVunconscious
p3277
I4661
sVmissing
p3278
I2889
sVattention
p3279
I336
sVyork
p3280
I4993
sVsucceed
p3281
I4326
sVopposition
p3282
I3134
sVdistinguish
p3283
I1287
sVunderstanding
p3284
I4667
sVshoe
p3285
I4013
sVlegislature
p3286
I2605
sVleague
p3287
I2586
sVc
I602
sVfeeling
p3288
I1716
sVimproved
p3289
I2299
sVreverse
p3290
I3779
sVsecrets
p3291
I3924
sVsolely
p3292
I4113
sVannual
p3293
I203
sVswim
p3294
I4395
sVforeign
p3295
I1829
sVconnection
p3296
I899
sVentertain
p3297
I1501
sVcontext
p3298
I943
sVforgotten
p3299
I1843
sVlet
p3300
I2616
sVgeniuses
p3301
I1943
sVfinds
p3302
I1750
sVcynic
p3303
I1065
sVload
p3304
I2678
sVflies
p3305
I1787
sVguts
p3306
I2068
sVwear
p3307
I4844
sVdrunk
p3308
I1356
sVreasons
p3309
I3646
sVsweet
p3310
I4391
sVacted
p3311
I64
sVallegiance
p3312
I160
sVcommunity
p3313
I833
sVsimply
p3314
I4050
sVlikes
p3315
I2649
sVchurch
p3316
I745
sVvessel
p3317
I4757
sVwritten
p3318
I4971
sVexpensive
p3319
I1602
sVstartling
p3320
I4222
sVconsuming
p3321
I931
sVdevil
p3322
I1208
sVdescribed
p3323
I1173
sVraise
p3324
I3603
sVinstrument
p3325
I2400
sVstamp
p3326
I4210
sVapostle
p3327
I223
sVcreate
p3328
I1015
sVacceptance
p3329
I27
sVcreativity
p3330
I1021
sVresponsibility
p3331
I3758
sVirritating
p3332
I2450
sVsecret
p3333
I3921
sVdropping
p3334
I1352
sVdamn
p3335
I1073
sVextends
p3336
I1621
sVterritory
p3337
I4468
sVmeeting
p3338
I2824
sVdelights
p3339
I1145
sVfirm
p3340
I1761
sVaffectionate
p3341
I119
sVlived
p3342
I2674
sVflight
p3343
I1788
sVchampion
p3344
I681
sVsending
p3345
I3945
sVcitizen
p3346
I752
sVgas
p3347
I1928
sVcruelty
p3348
I1047
sVnew
p3349
I3019
sVgap
p3350
I1926
sVmoderation
p3351
I2905
sVraces
p3352
I3597
sVawake
p3353
I360
sVsystematic
p3354
I4404
sVdemand
p3355
I1150
sVgag
p3356
I1918
sVwedding
p3357
I4851
sVplants
p3358
I3336
sVhandling
p3359
I2085
sVconception
p3360
I870
sVflames
p3361
I1775
sVtalking
p3362
I4417
sVfrozen
p3363
I1896
sVstraight
p3364
I4269
sVtip
p3365
I4529
sVtolerate
p3366
I4542
sVrat
p3367
I3615
sVadmire
p3368
I90
sVforgetting
p3369
I1836
sVyesterday'
p3370
I4990
sVsocialism
p3371
I4105
sVreplaced
p3372
I3727
sVmatch
p3373
I2791
sVbehavior
p3374
I433
sVerror
p3375
I1522
sVfun
p3376
I1908
sVkissing
p3377
I2525
sVvice
p3378
I4758
sVguide
p3379
I2061
sVengineers
p3380
I1480
sVreal
p3381
I3631
sVpound
p3382
I3403
sVhoping
p3383
I2203
sVcentury
p3384
I670
sVviolently
p3385
I4775
sVencountered
p3386
I1453
sVecstasy
p3387
I1400
sVawakening
p3388
I362
sVobstacle
p3389
I3082
sVwidely
p3390
I4880
sVowes
p3391
I3173
sVbeautifully
p3392
I419
sVready
p3393
I3629
sVrid
p3394
I3793
sVvanish
p3395
I4742
sVanguish
p3396
I197
sVcurrents
p3397
I1060
sVchase
p3398
I703
sVfunny
p3399
I1913
sVunworthy
p3400
I4712
sVsounding
p3401
I4146
sVmyth
p3402
I2970
sVanymore
p3403
I219
sVgrant
p3404
I2013
sVbelong
p3405
I445
sVrules
p3406
I3843
sVdiscourse
p3407
I1257
sVemphasize
p3408
I1446
sVwall
p3409
I4807
sVgrand
p3410
I2007
sVugliness
p3411
I4646
sVelevates
p3412
I1430
sVadvise
p3413
I112
sVstrangers
p3414
I4273
sVforgiveness
p3415
I1839
sVconflict
p3416
I889
sVhigher
p3417
I2162
sVdevelopment
p3418
I1205
sVarrives
p3419
I275
sVlawyers
p3420
I2575
sVtis
p3421
I4532
sVforced
p3422
I1825
sVrestraint
p3423
I3763
sVisland
p3424
I2451
sVyesterday
p3425
I4989
sVcement
p3426
I661
sValert
p3427
I156
sVhusbands
p3428
I2235
sVmoment
p3429
I2910
sVlevels
p3430
I2622
sVarrived
p3431
I274
sVpurpose
p3432
I3561
sVdecency
p3433
I1105
sVrealm
p3434
I3640
sVtimid
p3435
I4527
sVweird
p3436
I4859
sVrecent
p3437
I3653
sVearly
p3438
I1375
sVlower
p3439
I2721
sVpeople'
p3440
I3247
sVolder
p3441
I3113
sVsalvation
p3442
I3872
sVanybody
p3443
I218
sVanalysis
p3444
I186
sVhonor
p3445
I2191
sVmorrow
p3446
I2931
sVconcrete
p3447
I877
sVcheer
p3448
I708
sVedge
p3449
I1402
sVluxury
p3450
I2734
sVconsistency
p3451
I919
sVdares
p3452
I1081
sVorganization
p3453
I3150
sVspend
p3454
I4174
sVpreference
p3455
I3435
sVthings
p3456
I4489
sVabilities
p3457
I3
sVcompetitive
p3458
I848
sVsnow
p3459
I4101
sVprofoundly
p3460
I3508
sVshape
p3461
I3992
sVopenly
p3462
I3120
sVatomic
p3463
I323
sVquestions
p3464
I3581
sVusing
p3465
I4726
sVregardless
p3466
I3680
sValternative
p3467
I168
sVpraying
p3468
I3423
sVdishonesty
p3469
I1275
sVcontinent
p3470
I944
sVmeanest
p3471
I2806
sVdiscipline
p3472
I1251
sVsuperficial
p3473
I4356
sVcut
p3474
I1063
sVillusions
p3475
I2261
sVcup
p3476
I1053
sVhated
p3477
I2116
sVexcites
p3478
I1578
sVdanger
p3479
I1077
sVcemetery
p3480
I662
sVvague
p3481
I4734
sVsignals
p3482
I4037
sVeager
p3483
I1370
sVlabour
p3484
I2544
sVdeliberately
p3485
I1140
sVdare
p3486
I1080
sVcrying
p3487
I1049
sVwin
p3488
I4890
sVguarantees
p3489
I2055
sVexcited
p3490
I1576
sVhates
p3491
I2117
sVchess
p3492
I716
sVmarch
p3493
I2771
sVforces
p3494
I1826
sVemergency
p3495
I1441
sVdemands
p3496
I1152
sVbig
p3497
I462
sVcouple
p3498
I993
sVresults
p3499
I3766
sVfolk
p3500
I1805
sVwives
p3501
I4920
sVjudgement
p3502
I2483
sVmatters
p3503
I2798
sVgame
p3504
I1923
sVquest
p3505
I3578
sVprivate
p3506
I3480
sVwiser
p3507
I4908
sVbit
p3508
I473
sVawaken
p3509
I361
sVwings
p3510
I4898
sVformal
p3511
I1846
sVknock
p3512
I2530
sVpromising
p3513
I3519
sVimposed
p3514
I2289
sVd
I1068
sVsubmission
p3515
I4321
sVshaped
p3516
I3993
sVconfront
p3517
I892
sVsignal
p3518
I4036
sVpounds
p3519
I3404
sVmanifest
p3520
I2765
sVheart
p3521
I2132
sVcollect
p3522
I794
sVdistrust
p3523
I1290
sVcontinue
p3524
I947
sVyields
p3525
I4992
sVpopular
p3526
I3378
sVmediocrity
p3527
I2820
sVfoolish
p3528
I1817
sVdisorder
p3529
I1278
sVessential
p3530
I1527
sVmathematical
p3531
I2795
sVcanst
p3532
I617
sVmethods
p3533
I2851
sVabsolutely
p3534
I12
sVobliged
p3535
I3075
sVfathers
p3536
I1693
sVcreation
p3537
I1019
sVcertainties
p3538
I673
sVphone
p3539
I3299
sVsaints
p3540
I3868
sVseparated
p3541
I3956
sVloser
p3542
I2700
sVlips
p3543
I2661
sVeconomic
p3544
I1395
sVmighty
p3545
I2857
sVexamples
p3546
I1566
sVsight
p3547
I4034
sVmirror
p3548
I2878
sVselfishness
p3549
I3940
sVcandle
p3550
I615
sVpale
p3551
I3191
sVorganized
p3552
I3152
sVmomentary
p3553
I2912
sVdelivered
p3554
I1147
sVgradually
p3555
I2005
sVacquaintance
p3556
I58
sVdescribing
p3557
I1174
sVdull
p3558
I1359
sVaffects
p3559
I121
sVdecision
p3560
I1110
sVshall
p3561
I3988
sVnovelty
p3562
I3054
sVbenefit
p3563
I450
sVwrong
p3564
I4972
sVprovidence
p3565
I3545
sVpen
p3566
I3242
sVbehave
p3567
I432
sVeliminate
p3568
I1431
sVtends
p3569
I4461
sVstrife
p3570
I4285
sVworship
p3571
I4953
sVforgets
p3572
I1835
sVinclination
p3573
I2312
sVladder
p3574
I2547
sVsympathetic
p3575
I4400
sVobject
p3576
I3071
sVeating
p3577
I1392
sVresolve
p3578
I3748
sVremembered
p3579
I3710
sVword
p3580
I4933
sVcontinuing
p3581
I950
sVagreement
p3582
I141
sVrefused
p3583
I3675
sVsubconscious
p3584
I4317
sVstep
p3585
I4244
sVlover
p3586
I2714
sVvietnam
p3587
I4766
sVconsolation
p3588
I921
sVsoon
p3589
I4132
sVrefuses
p3590
I3676
sVmetaphor
p3591
I2849
sVabroad
p3592
I8
sVshine
p3593
I4005
sVfaith
p3594
I1659
sVgoods
p3595
I1990
sVworking
p3596
I4939
sVproven
p3597
I3540
sVsurrender
p3598
I4375
sVsorrows
p3599
I4137
sVwrinkles
p3600
I4965
sVdrama
p3601
I1327
sVdeserves
p3602
I1177
sVpace
p3603
I3177
sVounce
p3604
I3161
sVspit
p3605
I4184
sVexperiences
p3606
I1605
sVhatred
p3607
I2119
sVwonders
p3608
I4930
sVconsequently
p3609
I909
sVblock
p3610
I492
sVmiracles
p3611
I2877
sVrepair
p3612
I3721
sVenduring
p3613
I1470
sVimitation
p3614
I2271
sVnonsense
p3615
I3038
sVphase
p3616
I3293
sVappropriate
p3617
I250
sVprimarily
p3618
I3468
sVearth'
p3619
I1382
sVremembrance
p3620
I3712
sVlesson
p3621
I2613
sVsports
p3622
I4195
sVpentagon
p3623
I3245
sVrolls
p3624
I3819
sVsmells
p3625
I4094
sVwrongs
p3626
I4973
sVstatistics
p3627
I4231
sVsad
p3628
I3855
sVspending
p3629
I4175
sVmeasured
p3630
I2813
sVquestion
p3631
I3579
sVlive
p3632
I2673
sVfast
p3633
I1687
sVcustom
p3634
I1062
sVloveth
p3635
I2718
sVparting
p3636
I3209
sVsuit
p3637
I4347
sVforward
p3638
I1859
sVexamination
p3639
I1563
sVbored
p3640
I520
sVopens
p3641
I3121
sVopponent
p3642
I3127
sVmountains
p3643
I2945
sVplunge
p3644
I3354
sVinvite
p3645
I2441
sVinches
p3646
I2311
sVgoverns
p3647
I2001
sVoptimist
p3648
I3138
sVvehicle
p3649
I4749
sVhoped
p3650
I2199
sVcloth
p3651
I781
sVproperly
p3652
I3524
sVlink
p3653
I2658
sVauthority
p3654
I348
sVatom
p3655
I322
sVhopes
p3656
I2202
sVsun
p3657
I4351
sVline
p3658
I2656
sVconsiderable
p3659
I913
sVraising
p3660
I3606
sVtreats
p3661
I4597
sVdirected
p3662
I1237
sVideals
p3663
I2244
sVrejection
p3664
I3687
sVconsist
p3665
I918
sVfulfilling
p3666
I1903
sVcharacteristic
p3667
I691
sVsounds
p3668
I4147
sVsocial
p3669
I4104
sVstops
p3670
I4263
sVinternational
p3671
I2422
sVmaturity
p3672
I2800
sVslander
p3673
I4075
sVuh
p3674
I4648
sVmature
p3675
I2799
sVsum
p3676
I4348
sVwicked
p3677
I4878
sVsimilar
p3678
I4046
sVcalled
p3679
I606
sVlovers
p3680
I2716
sVsort
p3681
I4139
sVindividuality
p3682
I2338
sVconstant
p3683
I923
sVadults
p3684
I100
sVstick
p3685
I4249
sVpencil
p3686
I3244
sVdefined
p3687
I1131
sVm
I2736
sVinfluence
p3688
I2351
sVrevealed
p3689
I3775
sVmerry
p3690
I2844
sVengineering
p3691
I1479
sVcure
p3692
I1054
sVhome
p3693
I2185
sVdragging
p3694
I1325
sVprevail
p3695
I3458
sVdenying
p3696
I1159
sVrainbow
p3697
I3602
sVcodes
p3698
I790
sVlemon
p3699
I2608
sVevils
p3700
I1556
sVovercoming
p3701
I3168
sVendurance
p3702
I1466
sVidleness
p3703
I2251
sVfears
p3704
I1705
sVbacks
p3705
I374
sVoccasional
p3706
I3088
sVclub
p3707
I787
sVpoliticians
p3708
I3374
sVreputation
p3709
I3736
sVactors
p3710
I72
sVincome
p3711
I2316
sVdepartment
p3712
I1161
sVpainfully
p3713
I3183
sVnay
p3714
I2989
sVpotential
p3715
I3401
sVwishing
p3716
I4913
sVnice
p3717
I3023
sVwished
p3718
I4911
sVsmiles
p3719
I4096
sVdraw
p3720
I1328
sVelements
p3721
I1428
sVmankind
p3722
I2767
sVbeginnings
p3723
I428
sVgross
p3724
I2043
sVnight'
p3725
I3025
sVproblems
p3726
I3486
sVresign
p3727
I3744
sVprepared
p3728
I3442
sVhelping
p3729
I2148
sVdrag
p3730
I1324
sVallowing
p3731
I164
sVutterly
p3732
I4732
sVworm
p3733
I4945
sVcharming
p3734
I701
sVdesert
p3735
I1175
sVstructure
p3736
I4301
sVmood
p3737
I2923
sVago
p3738
I137
sVnight
p3739
I3024
sVland
p3740
I2552
sVe
I1369
sVpractically
p3741
I3412
sVphysics
p3742
I3304
sVage
p3743
I131
sVrequired
p3744
I3738
sVholes
p3745
I2179
sVclenched
p3746
I766
sVappalling
p3747
I224
sVyou'
p3748
I4994
sVo'
p3749
I3066
sVdepth
p3750
I1168
sVfresh
p3751
I1885
sVnobility
p3752
I3030
sVliterally
p3753
I2669
sVfailures
p3754
I1654
sVmenace
p3755
I2834
sVrequires
p3756
I3739
sVhaving
p3757
I2120
sVwatergate
p3758
I4828
sVcode
p3759
I789
sVwire
p3760
I4904
sVsaying
p3761
I3891
sVscratch
p3762
I3909
sVgrunt
p3763
I2053
sVlaziness
p3764
I2577
sVresistance
p3765
I3746
sVproduce
p3766
I3492
sVexisting
p3767
I1591
sValien
p3768
I157
sVproposition
p3769
I3529
sVstories
p3770
I4265
sVgang
p3771
I1925
sVwinds
p3772
I4894
sVgossip
p3773
I1992
sVvicious
p3774
I4760
sVmoon
p3775
I2924
sVprophecy
p3776
I3526
sVissues
p3777
I2454
sVluxuries
p3778
I2733
sVgraves
p3779
I2026
sVconcerned
p3780
I873
sVleap
p3781
I2589
sVsend
p3782
I3944
sVnose
p3783
I3042
sVlanguages
p3784
I2556
sVdoes
p3785
I1303
sVhelps
p3786
I2150
sVstable
p3787
I4205
sVweather
p3788
I4848
sVpassion
p3789
I3220
sVdislike
p3790
I1277
sVfatal
p3791
I1690
sVfriendly
p3792
I1888
sVresources
p3793
I3752
sVingredient
p3794
I2357
sVabode
p3795
I6
sVpay
p3796
I3235
sVbreathing
p3797
I554
sVinfinite
p3798
I2348
sVgarden
p3799
I1927
sVmorality
p3800
I2927
sVorganizations
p3801
I3151
sVcontinues
p3802
I949
sVprudence
p3803
I3547
sVwave
p3804
I4830
sVsensation
p3805
I3947
sVspoon
p3806
I4193
sVfelicity
p3807
I1720
sVputting
p3808
I3571
sVaccuse
p3809
I47
sVtelling
p3810
I4446
sVpracticing
p3811
I3415
sVdiscouragement
p3812
I1256
sVcontinued
p3813
I948
sVkindled
p3814
I2516
sVentire
p3815
I1504
sVmagic
p3816
I2743
sVepistulae
p3817
I1512
sVrussia
p3818
I3848
sVharbor
p3819
I2100
sVpositions
p3820
I3384
sVjoel
p3821
I2468
sVinclinations
p3822
I2313
sVcolors
p3823
I799
sVfewer
p3824
I1730
sVanxious
p3825
I217
sVtenderness
p3826
I4460
sVrace
p3827
I3596
sVswallow
p3828
I4386
sVavoiding
p3829
I358
sVrefer
p3830
I3664
sVathlete
p3831
I320
sVcomforts
p3832
I810
sVslow
p3833
I4086
sVworldly
p3834
I4943
sVother'
p3835
I3159
sVvictim
p3836
I4761
sVcarter
p3837
I639
sVparticipate
p3838
I3205
sVmalice
p3839
I2757
sVrivers
p3840
I3809
sVjump
p3841
I2488
sVnoise
p3842
I3036
sVpicked
p3843
I3306
sVreflected
p3844
I3668
sVgrowing
p3845
I2049
sVruled
p3846
I3840
sVbelieves
p3847
I442
sVodd
p3848
I3096
sVhonors
p3849
I2194
sVdepression
p3850
I1167
sVscientific
p3851
I3905
sVdoctrines
p3852
I1301
sVplays
p3853
I3344
sVpower
p3854
I3407
sVsoup
p3855
I4148
sVgiving
p3856
I1962
sVslight
p3857
I4082
sVexpressed
p3858
I1616
sVpractices
p3859
I3414
sVcell
p3860
I660
sVpaying
p3861
I3236
sVwaiting
p3862
I4799
sVexperiment
p3863
I1606
sVsoul'
p3864
I4143
sVcapital
p3865
I622
sVexpresses
p3866
I1617
sVbird
p3867
I469
sVexercise
p3868
I1583
sVbody
p3869
I507
sVmisdeeds
p3870
I2880
sVjustification
p3871
I2493
sVled
p3872
I2600
sVservants
p3873
I3965
sVdegree
p3874
I1136
sVexchange
p3875
I1575
sVgot
p3876
I1993
sVgathered
p3877
I1932
sVpushing
p3878
I3569
sVcommercial
p3879
I818
sVsins
p3880
I4059
sVfollowing
p3881
I1810
sVexplore
p3882
I1613
sVles
p3883
I2611
sVfocused
p3884
I1802
sVhealing
p3885
I2124
sVseparation
p3886
I3958
sVmeet
p3887
I2823
sVconsideration
p3888
I914
sVsafer
p3889
I3861
sVinvented
p3890
I2435
sVtalked
p3891
I4416
sVimperfections
p3892
I2285
sVundertaking
p3893
I4672
sVextreme
p3894
I1627
sVgreat
p3895
I2029
sVengage
p3896
I1477
sVtalent
p3897
I4413
sVuneasy
p3898
I4676
sVconceit
p3899
I864
sVinvolved
p3900
I2443
sVlarger
p3901
I2559
sVhost
p3902
I2209
sVcontradiction
p3903
I954
sVleaving
p3904
I2598
sVfond
p3905
I1813
sVproducts
p3906
I3499
sVunconditional
p3907
I4660
sVsword
p3908
I4398
sVdefeat
p3909
I1123
sVopinion
p3910
I3125
sVclimb
p3911
I770
sVproof
p3912
I3521
sVmakes
p3913
I2753
sVguidance
p3914
I2060
sVinvolves
p3915
I2444
sVcomposed
p3916
I857
sVnamed
p3917
I2976
sVwriter
p3918
I4967
sVforesee
p3919
I1830
sVapple
p3920
I237
sVadmired
p3921
I91
sVegypt
p3922
I1419
sVpresidents
p3923
I3453
sVmanage
p3924
I2760
sVdedicated
p3925
I1115
sVapt
p3926
I253
sVimprobable
p3927
I2297
sVrichest
p3928
I3791
sVweaker
p3929
I4837
sVnames
p3930
I2977
sVapply
p3931
I241
sVsinging
p3932
I4055
sVcloud
p3933
I784
sVstanding
p3934
I4214
sVconfidence
p3935
I885
sVcrap
p3936
I1010
sVhears
p3937
I2131
sVinspiration
p3938
I2384
sVfailed
p3939
I1649
sVremains
p3940
I3705
sVillegal
p3941
I2257
sVplagiarism
p3942
I3323
sVfrog
p3943
I1895
sVsaith
p3944
I3869
sVworn
p3945
I4947
sVdoubt
p3946
I1318
sVcontentment
p3947
I941
sVweeping
p3948
I4856
sVsave
p3949
I3885
sVagreeable
p3950
I140
sVstage
p3951
I4207
sVdreams
p3952
I1339
sVreflects
p3953
I3670
sVjudged
p3954
I2482
sVpossession
p3955
I3390
sVbureaucracy
p3956
I589
sVsons
p3957
I4131
sVclever
p3958
I767
sVstarted
p3959
I4220
sVrarest
p3960
I3614
sVimpress
p3961
I2294
sVshame
p3962
I3991
sVbodily
p3963
I506
sVwonder
p3964
I4927
sVmend
p3965
I2835
sVcarrying
p3966
I637
sVashamed
p3967
I284
sVbaby
p3968
I373
sVok
p3969
I3110
sVharvest
p3970
I2110
sVappointed
p3971
I243
sVcharity
p3972
I697
sVannoy
p3973
I200
sVmajority
p3974
I2751
sVaccount
p3975
I45
sVballs
p3976
I384
sVanimals
p3977
I199
sVpiety
p3978
I3312
sVf
I1633
sVchallenge
p3979
I678
sVgetting
p3980
I1952
sVinsists
p3981
I2382
sVfortunes
p3982
I1858
sVpour
p3983
I3405
sVworlds
p3984
I4944
sVcrossed
p3985
I1041
sVpraise
p3986
I3416
sVfreedom
p3987
I1880
sVfulfill
p3988
I1901
sVnurture
p3989
I3063
sVdrops
p3990
I1353
sVconformity
p3991
I891
sVfetch
p3992
I1729
sVfulfillment
p3993
I1904
sVcontrol
p3994
I956
sVwearing
p3995
I4845
sVviolence
p3996
I4773
sVbent
p3997
I452
sVlinks
p3998
I2659
sVprocess
p3999
I3489
sVlock
p4000
I2680
sVtax
p4001
I4427
sVpurposes
p4002
I3562
sVwealthy
p4003
I4841
sVpieces
p4004
I3311
sVhigh
p4005
I2161
sVprofessor
p4006
I3504
sVassumptions
p4007
I311
sVbend
p4008
I448
sVslip
p4009
I4085
sVbones
p4010
I516
sVfounding
p4011
I1866
sVvoice
p4012
I4786
sVtrumpet
p4013
I4623
sVcontempt
p4014
I938
sVcounterfeit
p4015
I988
sVautobiography
p4016
I350
sVeducational
p4017
I1407
sVunited
p4018
I4690
sVdaring
p4019
I1082
sVdemocracy
p4020
I1153
sVpure
p4021
I3557
sVdestroying
p4022
I1192
sVboxing
p4023
I537
sVpoetry
p4024
I3360
sVfortunate
p4025
I1856
sVdelay
p4026
I1138
sVpleasing
p4027
I3348
sVlamp
p4028
I2551
sVseeds
p4029
I3928
sVforest
p4030
I1831
sVanimal
p4031
I198
sVinstead
p4032
I2392
sVmysteries
p4033
I2967
sVcomedy
p4034
I806
sVestablishment
p4035
I1533
sVsin
p4036
I4051
sVstand
p4037
I4211
sVtension
p4038
I4462
sVbuildings
p4039
I583
sVattend
p4040
I334
sVsir
p4041
I4060
sVterrible
p4042
I4465
sVwatch
p4043
I4824
sVincompetence
p4044
I2317
sVact
p4045
I63
sVwinners
p4046
I4900
sVcollection
p4047
I795
sVindependent
p4048
I2329
sVabuse
p4049
I22
sVpreferred
p4050
I3436
sVrecords
p4051
I3661
sVurges
p4052
I4720
sVfits
p4053
I1768
sVties
p4054
I4520
sVcabbage
p4055
I603
sVtrifling
p4056
I4609
sVrealized
p4057
I3636
sVretirement
p4058
I3770
sVpurely
p4059
I3558
sVquickest
p4060
I3584
sVbind
p4061
I467
sVsit
p4062
I4062
sVlines
p4063
I2657
sVfeels
p4064
I1718
sVelement
p4065
I1427
sVchief
p4066
I720
sVhonestly
p4067
I2188
sVrealizes
p4068
I3637
sVallow
p4069
I162
sVintellectuals
p4070
I2407
sVquotations
p4071
I3592
sVdiscussion
p4072
I1267
sVlongest
p4073
I2691
sVholds
p4074
I2177
sVbeauties
p4075
I417
sVproduces
p4076
I3494
sVwit
p4077
I4914
sVtrain
p4078
I4577
sVdespite
p4079
I1187
sVdoubtful
p4080
I1319
sVproduced
p4081
I3493
sVwhilst
p4082
I4869
sVincluding
p4083
I2315
sVlooks
p4084
I2696
sVtyrant
p4085
I4643
sVhorns
p4086
I2205
sVpermission
p4087
I3266
sVpolished
p4088
I3368
sVneurotic
p4089
I3018
sVthyself
p4090
I4516
sVbunch
p4091
I586
sVperfect
p4092
I3253
sVbridges
p4093
I559
sVindustrious
p4094
I2341
sVouter
p4095
I3163
sVdecay
p4096
I1102
sVchosen
p4097
I737
sVrightly
p4098
I3800
sVmasses
p4099
I2786
sVrelativity
p4100
I3696
sVships
p4101
I4009
sVresponsibilities
p4102
I3757
sVlabor
p4103
I2541
sVheroism
p4104
I2155
sVpermanent
p4105
I3264
sVrestrain
p4106
I3762
sVchoose
p4107
I734
sVinstruments
p4108
I2401
sVorange
p4109
I3142
sVcovered
p4110
I1000
sVtolerable
p4111
I4539
sVcriminal
p4112
I1032
sVdefining
p4113
I1132
sVspreading
p4114
I4199
sVdad
p4115
I1069
sVcrash
p4116
I1011
sVgreater
p4117
I2030
sVrepeats
p4118
I3724
sVmaterial
p4119
I2793
sVearn
p4120
I1376
sVmediocre
p4121
I2819
sVmention
p4122
I2838
sVcutting
p4123
I1064
sVsnake
p4124
I4100
sVkiss
p4125
I2523
sVambition
p4126
I174
sVseas
p4127
I3916
sVkindness
p4128
I2518
sVaffections
p4129
I120
sVday
p4130
I1089
sVstrive
p4131
I4292
sVarticles
p4132
I279
sVmasters
p4133
I2789
sVpersuasion
p4134
I3289
sVprofound
p4135
I3507
sVmastery
p4136
I2790
sVimmoral
p4137
I2276
sVuniversity
p4138
I4695
sVfeast
p4139
I1706
sVbilly
p4140
I466
sVdelightful
p4141
I1144
sVmoses
p4142
I2934
sVmode
p4143
I2900
sVtruth
p4144
I4627
sVaccompanied
p4145
I34
sVbeneath
p4146
I449
sVstock
p4147
I4255
sVexperienced
p4148
I1604
sVesteem
p4149
I1535
sVdoing
p4150
I1307
sVwood
p4151
I4931
sVartists
p4152
I282
sVills
p4153
I2259
sVconquers
p4154
I902
sVrelated
p4155
I3690
sVsociety
p4156
I4107
sVbooks
p4157
I518
sVsands
p4158
I3874
sVvariety
p4159
I4744
sVmeasure
p4160
I2812
sVgodliness
p4161
I1978
sVsexual
p4162
I3982
sVspecial
p4163
I4167
sVrespects
p4164
I3755
sVtwice
p4165
I4638
sVarmor
p4166
I270
sVdefend
p4167
I1127
sVrelate
p4168
I3689
sVchaos
p4169
I689
sVricky
p4170
I3792
sVimpartial
p4171
I2281
sVmate
p4172
I2792
sVhonorable
p4173
I2192
sVcause
p4174
I651
sVwaters
p4175
I4829
sVred
p4176
I3662
sVachievements
p4177
I53
sVshut
p4178
I4029
sVphilosophy
p4179
I3298
sVperish
p4180
I3263
sVdictionary
p4181
I1214
sVfrank
p4182
I1876
sVtested
p4183
I4472
sVrepentance
p4184
I3725
sVfourteen
p4185
I1868
sVcompletely
p4186
I853
sVancestry
p4187
I189
sVsurely
p4188
I4369
sVoblivion
p4189
I3076
sVconservatives
p4190
I911
sVshun
p4191
I4028
sVstupidity
p4192
I4315
sVbleed
p4193
I484
sVquo
p4194
I3590
sVsolutions
p4195
I4118
sVbackwards
p4196
I376
sVcured
p4197
I1055
sVhostile
p4198
I2210
sVphrases
p4199
I3301
sVroute
p4200
I3834
sVscars
p4201
I3898
sVdiminished
p4202
I1232
sVtimes
p4203
I4526
sVconversation
p4204
I963
sVlength
p4205
I2610
sVallied
p4206
I161
sVsubmit
p4207
I4322
sVserenity
p4208
I3960
sVassumed
p4209
I308
sVretain
p4210
I3768
sVdiminishes
p4211
I1233
sVinvisible
p4212
I2440
sVscare
p4213
I3896
sVsouth
p4214
I4152
sVmad
p4215
I2740
sVfinest
p4216
I1753
sVplainly
p4217
I3325
sVsucceeds
p4218
I4328
sVpossessing
p4219
I3389
sVconfuse
p4220
I893
sVscene
p4221
I3899
sVowned
p4222
I3174
sVbetrays
p4223
I457
sVimproving
p4224
I2301
sVbitch
p4225
I474
sVflows
p4226
I1797
sVaffliction
p4227
I124
sVowner
p4228
I3175
sVpatriotism
p4229
I3230
sVblows
p4230
I499
sVnoticed
p4231
I3048
sVquality
p4232
I3573
sVwarm
p4233
I4815
sVlove'
p4234
I2711
sVancient
p4235
I190
sVsmaller
p4236
I4089
sVfascinating
p4237
I1683
sVtable
p4238
I4407
sVprivacy
p4239
I3479
sVbears
p4240
I411
sVguys
p4241
I2070
sVachieved
p4242
I51
sVseat
p4243
I3918
sVadopted
p4244
I97
sVeinstein
p4245
I1420
sVattach
p4246
I325
sVattack
p4247
I327
sVmindless
p4248
I2868
sVinalienable
p4249
I2307
sVexhilarating
p4250
I1586
sVperfectly
p4251
I3255
sVfinal
p4252
I1747
sVpainful
p4253
I3182
sVmisunderstood
p4254
I2896
sVinterests
p4255
I2419
sVshell
p4256
I4001
sVstomach
p4257
I4257
sVstars
p4258
I4218
sVjesus
p4259
I2462
sVcompleted
p4260
I852
sVacquire
p4261
I60
sVstudies
p4262
I4309
sVlists
p4263
I2668
sVverse
p4264
I4755
sVgrandpa
p4265
I2012
sVmanifestation
p4266
I2766
sVjuly
p4267
I2487
sVoverwhelming
p4268
I3171
sVinstitution
p4269
I2396
sVnoses
p4270
I3043
sVsteel
p4271
I4242
sVloved
p4272
I2712
sVwish
p4273
I4910
sVjohnson
p4274
I2471
sVtaken
p4275
I4409
sVboring
p4276
I522
sVaspiration
p4277
I293
sVriches
p4278
I3790
sVricher
p4279
I3789
sVbed
p4280
I421
sVbee
p4281
I422
sVpolitics
p4282
I3375
sVcalamity
p4283
I604
sVindividual
p4284
I2336
sVloves
p4285
I2717
sVlight
p4286
I2640
sVbare
p4287
I390
sVselling
p4288
I3942
sVdistinguished
p4289
I1288
sVbet
p4290
I454
sVimaginative
p4291
I2266
sVenforced
p4292
I1476
sVfalse
p4293
I1666
sVsurrendered
p4294
I4376
sVlightly
p4295
I2643
sVsurvives
p4296
I4381
sVtrusting
p4297
I4626
sVgently
p4298
I1947
sVcomfortable
p4299
I809
sVtide
p4300
I4517
sVfail
p4301
I1648
sVmotive
p4302
I2940
sVtorment
p4303
I4554
sVsincerity
p4304
I4053
sVneed
p4305
I3001
sVturn
p4306
I4633
sVapparently
p4307
I226
sVclearly
p4308
I765
sVviewed
p4309
I4768
sVnecessities
p4310
I2998
sVreaches
p4311
I3621
sVafraid
p4312
I127
sVangle
p4313
I195
sVpupils
p4314
I3556
sVrussians
p4315
I3849
sVskillful
p4316
I4071
sVpursued
p4317
I3565
sVwits
p4318
I4918
sVable
p4319
I5
sVgravity
p4320
I2027
sVbattles
p4321
I405
sVarm
p4322
I267
sVinstance
p4323
I2389
sVconcerns
p4324
I874
sVtranquility
p4325
I4581
sVtruck
p4326
I4618
sVsubject
p4327
I4318
sVpersistence
p4328
I3275
sVsoar
p4329
I4102
sVtonight
p4330
I4548
sVregard
p4331
I3678
sVunless
p4332
I4699
sVcombat
p4333
I801
sVpassionately
p4334
I3222
sVsenses
p4335
I3950
sVmortal
p4336
I2932
sVharmful
p4337
I2106
sVintentions
p4338
I2416
sVcourtesy
p4339
I998
sVmontana
p4340
I2919
sVconnected
p4341
I898
sVstrikes
p4342
I4287
sVdevice
p4343
I1207
sVcapacity
p4344
I621
sVawe
p4345
I367
sVintrinsic
p4346
I2430
sVclass
p4347
I760
sVpolice
p4348
I3366
sVspirits
p4349
I4181
sVdeny
p4350
I1158
sVconsequences
p4351
I908
sVreminds
p4352
I3715
sVsweeping
p4353
I4390
sVliked
p4354
I2647
sVgather
p4355
I1931
sVstronger
p4356
I4297
sVdisease
p4357
I1268
sVpsychological
p4358
I3550
sVcounted
p4359
I986
sVastonishing
p4360
I316
sVteachers
p4361
I4432
sVabsurd
p4362
I17
sVmechanical
p4363
I2816
sVinnocent
p4364
I2371
sVenjoyments
p4365
I1488
sVpainting
p4366
I3189
sVfact
p4367
I1641
sVgoals
p4368
I1975
sVson
p4369
I4128
sVaffair
p4370
I114
sVatmosphere
p4371
I321
sVone'
p4372
I3114
sVabsorbing
p4373
I15
sVstream
p4374
I4275
sVpleases
p4375
I3347
sVcharles
p4376
I698
sVbring
p4377
I564
sVplanning
p4378
I3331
sVdemocrats
p4379
I1155
sVsoldiers
p4380
I4111
sVchicken
p4381
I719
sVdarkest
p4382
I1084
sVeconomist
p4383
I1397
sVdebate
p4384
I1099
sVdecade
p4385
I1101
sVprincipal
p4386
I3473
sVnearer
p4387
I2992
sVenvy
p4388
I1510
sVcommunism
p4389
I830
sVbased
p4390
I395
sVknowledge
p4391
I2536
sVtire
p4392
I4530
sVearned
p4393
I1377
sVsparks
p4394
I4161
sVwinner
p4395
I4899
sVhopeful
p4396
I2200
sVcontrols
p4397
I959
sVeat
p4398
I1390
sVdreamers
p4399
I1337
sVreign
p4400
I3684
sVnotes
p4401
I3045
sVambiguity
p4402
I173
sVattained
p4403
I331
sVemployed
p4404
I1449
sVcommunist
p4405
I831
sVhandsome
p4406
I2087
sVlocal
p4407
I2679
sVachieve
p4408
I50
sVfinger
p4409
I1754
sVmeant
p4410
I2811
sVdoubting
p4411
I1320
sVinsight
p4412
I2378
sVhandle
p4413
I2084
sVlistened
p4414
I2664
sVbonds
p4415
I514
sVbeat
p4416
I413
sVfamiliar
p4417
I1670
sVlucky
p4418
I2729
sVbear
p4419
I409
sVlistener
p4420
I2665
sVones
p4421
I3115
sVpolitician
p4422
I3373
sVperfection
p4423
I3254
sVwords
p4424
I4934
sVprobably
p4425
I3484
sVscore
p4426
I3908
sVyears
p4427
I4985
sVroutine
p4428
I3835
sVendless
p4429
I1463
sVgray
p4430
I2028
sVevolution
p4431
I1557
sVglory
p4432
I1972
sVcourse
p4433
I996
sVupper
p4434
I4713
sVnumerous
p4435
I3060
sVmarried
p4436
I2779
sVfixes
p4437
I1772
sVtaxes
p4438
I4428
sVcalling
p4439
I607
sVproved
p4440
I3539
sVstuff
p4441
I4312
sVthrive
p4442
I4507
sVcontain
p4443
I933
sVgrab
p4444
I2002
sVfailings
p4445
I1651
sVgenerations
p4446
I1939
sVdeceived
p4447
I1104
sVconform
p4448
I890
sVtemporarily
p4449
I4451
sVfarthest
p4450
I1682
sVexists
p4451
I1592
sVprayers
p4452
I3422
sVacquired
p4453
I61
sVsmooth
p4454
I4099
sVframe
p4455
I1874
sVshake
p4456
I3986
sVhumans
p4457
I2221
sVlazy
p4458
I2578
sVyearning
p4459
I4984
sVaccused
p4460
I48
sVmerits
p4461
I2843
sVyouthful
p4462
I4998
sVdesperate
p4463
I1185
sVsanity
p4464
I3876
sVdeity
p4465
I1137
sVcloser
p4466
I778
sVcloses
p4467
I779
sVwalking
p4468
I4805
sVputs
p4469
I3570
sVtenderly
p4470
I4459
sVdestiny
p4471
I1189
sVrecord
p4472
I3659
sVjoys
p4473
I2480
sVnightmare
p4474
I3026
sVtend
p4475
I4456
sVrulers
p4476
I3842
sVfavor
p4477
I1696
sVstate
p4478
I4225
sVdifficulties
p4479
I1226
sVinjustice
p4480
I2367
sVclosed
p4481
I776
sVhorrible
p4482
I2206
sVnuclear
p4483
I3056
sVprevailing
p4484
I3459
sVmidnight
p4485
I2855
sVbought
p4486
I530
sVwisely
p4487
I4907
sVends
p4488
I1465
sVhandful
p4489
I2082
sVability
p4490
I4
sVsheep
p4491
I3999
sVamen
p4492
I177
sVimportance
p4493
I2287
sVjoy
p4494
I2479
sVsorrow
p4495
I4136
sVdeliver
p4496
I1146
sVinterfere
p4497
I2420
sVefficiency
p4498
I1412
sVjob
p4499
I2466
sVelse'
p4500
I1434
sVhypothesis
p4501
I2237
sVfirmness
p4502
I1763
sVhistorians
p4503
I2170
sVapproval
p4504
I251
sVprecious
p4505
I3428
sVweary
p4506
I4847
sVswift
p4507
I4394
sVweapons
p4508
I4843
sVregular
p4509
I3683
sVthumb
p4510
I4514
sVcommands
p4511
I815
sVplanned
p4512
I3330
sVinstant
p4513
I2390
sVlimits
p4514
I2655
sVcareer
p4515
I628
sVfreely
p4516
I1881
sVtaking
p4517
I4411
sVla
p4518
I2540
sVequal
p4519
I1513
sVdrug
p4520
I1354
sVagree
p4521
I139
sVfulfilled
p4522
I1902
sVassure
p4523
I313
sVadmit
p4524
I92
sVfigures
p4525
I1742
sVrust
p4526
I3850
sVsaddest
p4527
I3856
sVmarta
p4528
I2781
sVattributes
p4529
I345
sVpassing
p4530
I3219
sVlofty
p4531
I2682
sVsafely
p4532
I3860
sVinvites
p4533
I2442
sVglorious
p4534
I1971
sVgrounds
p4535
I2045
sVcomment
p4536
I816
sVstrongly
p4537
I4299
sVtorn
p4538
I4555
sVcensorship
p4539
I664
sVbearing
p4540
I410
sVvigorous
p4541
I4770
sVhabitual
p4542
I2073
sVsupreme
p4543
I4367
sVwalk
p4544
I4803
sVbetrayed
p4545
I456
sVrevolution
p4546
I3780
sVlaugh
p4547
I2565
sVcynicism
p4548
I1067
sVkings
p4549
I2522
sVwholesome
p4550
I4874
sVtouched
p4551
I4560
sVearning
p4552
I1379
sVunhappiness
p4553
I4684
sVpoem
p4554
I3357
sVaccomplishing
p4555
I39
sVtread
p4556
I4591
sVsecond
p4557
I3920
sVaddition
p4558
I82
sVdecent
p4559
I1106
sVprince
p4560
I3472
sVwindow
p4561
I4892
sVcowards
p4562
I1006
sVimmense
p4563
I2275
sVliberals
p4564
I2626
sVgaze
p4565
I1935
sVslowly
p4566
I4087
sVfog
p4567
I1804
sVah
p4568
I143
sVpoet
p4569
I3359
sVkitchen
p4570
I2526
sVkilled
p4571
I2510
sVdefine
p4572
I1130
sVremedies
p4573
I3707
sVpity
p4574
I3319
sVshoulders
p4575
I4022
sVarises
p4576
I264
sVdiversity
p4577
I1291
sVpowerful
p4578
I3408
sVpainted
p4579
I3186
sVmoved
p4580
I2948
sVsufficient
p4581
I4342
sVprotect
p4582
I3533
sVintelligent
p4583
I2409
sVpie
p4584
I3309
sVassert
p4585
I300
sVfinished
p4586
I1757
sVforge
p4587
I1833
sVresort
p4588
I3750
sVvanity
p4589
I4743
sVgeneral
p4590
I1936
sVweaknesses
p4591
I4839
sVpainter
p4592
I3187
sVquotation
p4593
I3591
sVhomes
p4594
I2186
sVholiday
p4595
I2180
sVunlike
p4596
I4700
sVrom
p4597
I3820
sVfearful
p4598
I1703
sVplain
p4599
I3324
sVappearance
p4600
I229
sVvalue
p4601
I4739
sVchoices
p4602
I732
sVthou
p4603
I4498
sVfault
p4604
I1694
sVknowing
p4605
I2535
sVpictures
p4606
I3308
sVinstantly
p4607
I2391
sVdiscoveries
p4608
I1260
sVgrasped
p4609
I2019
sVsupply
p4610
I4361
sVuncertainty
p4611
I4657
sVgoodness
p4612
I1989
sVdissent
p4613
I1281
sVdelusion
p4614
I1148
sVencouragement
p4615
I1456
sVhelped
p4616
I2146
sVvillage
p4617
I4771
sVtruest
p4618
I4621
sVoptimistic
p4619
I3139
sVlifetime
p4620
I2637
sVprose
p4621
I3530
sVpartner
p4622
I3211
sVsits
p4623
I4063
sVtranquil
p4624
I4580
sVhappy
p4625
I2099
sVdenial
p4626
I1156
sVsteer
p4627
I4243
sVbegan
p4628
I425
sVtemptation
p4629
I4454
sVadministration
p4630
I87
sVcross
p4631
I1040
sVunite
p4632
I4689
sVproceeds
p4633
I3488
sVmember
p4634
I2828
sVreap
p4635
I3641
sVunity
p4636
I4691
sVparts
p4637
I3213
sVspeaker
p4638
I4164
sVtry
p4639
I4629
sVprices
p4640
I3465
sVsmarter
p4641
I4092
sVinch
p4642
I2310
sVparty
p4643
I3214
sVfinite
p4644
I1758
sVfeminine
p4645
I1727
sVdifficult
p4646
I1225
sVinjured
p4647
I2364
sVtedious
p4648
I4441
sVball
p4649
I383
sVslave
p4650
I4076
sVemotionally
p4651
I1444
sVselfish
p4652
I3939
sVabsorb
p4653
I13
sVappearances
p4654
I230
sVbald
p4655
I382
sVdisagree
p4656
I1243
sVeffect
p4657
I1408
sVbeast
p4658
I412
sVsooner
p4659
I4133
sVstudent
p4660
I4306
sVdiscouraged
p4661
I1255
sVdust
p4662
I1361
sVfrequently
p4663
I1884
sVlaborious
p4664
I2542
sVjudgment
p4665
I2486
sVidentity
p4666
I2247
sVdestruction
p4667
I1194
sVscarcely
p4668
I3895
sVexpense
p4669
I1601
sVcenter
p4670
I666
sVlunch
p4671
I2730
sVweapon
p4672
I4842
sVincredible
p4673
I2327
sVfighting
p4674
I1739
sVthought
p4675
I4499
sVsufferings
p4676
I4339
sVsheer
p4677
I4000
sVcommand
p4678
I813
sVoft
p4679
I3107
sVenglish
p4680
I1482
sVpaul'
p4681
I3233
sVcompelled
p4682
I844
sVmuscle
p4683
I2959
sVsoviet
p4684
I4154
sVdrawing
p4685
I1329
sVusual
p4686
I4727
sVlest
p4687
I2615
sVpraising
p4688
I3419
sVexcessive
p4689
I1574
sVenormously
p4690
I1491
sVcried
p4691
I1028
sVcamel
p4692
I611
sVincreasingly
p4693
I2326
sVpercent
p4694
I3251
sVexecutive
p4695
I1582
sVenemy'
p4696
I1473
sVmistaken
p4697
I2892
sVgun
p4698
I2066
sVcries
p4699
I1029
sVmistakes
p4700
I2893
sVdistant
p4701
I1283
sVfishing
p4702
I1765
sVseats
p4703
I3919
sVpaul
p4704
I3232
sVstudying
p4705
I4311
sVdost
p4706
I1315
sVafflicted
p4707
I123
sVweb
p4708
I4850
sVgenerous
p4709
I1941
sVrepublican
p4710
I3734
sVroses
p4711
I3831
sVflee
p4712
I1784
sVbell
p4713
I444
sVsky
p4714
I4074
sVlake
p4715
I2550
sVhall
p4716
I2078
sVsimple
p4717
I4047
sVadd
p4718
I78
sVcombine
p4719
I803
sVattractive
p4720
I342
sVcrack
p4721
I1008
sVought
p4722
I3160
sVsubstance
p4723
I4323
sVthrone
p4724
I4509
sVkick
p4725
I2503
sVidentical
p4726
I2246
sVtests
p4727
I4474
sVincreased
p4728
I2323
sVfate
p4729
I1691
sVgovernment
p4730
I1999
sVpriest
p4731
I3467
sVposterity
p4732
I3396
sVpants
p4733
I3193
sVmanners
p4734
I2769
sVincreases
p4735
I2324
sVknow
p4736
I2533
sVburden
p4737
I587
sVdesk
p4738
I1183
sVpress
p4739
I3454
sVimmediately
p4740
I2274
sVmythology
p4741
I2971
sVmoment'
p4742
I2911
sVstorms
p4743
I4267
sVloss
p4744
I2703
sVfleas
p4745
I1783
sVnecessary
p4746
I2997
sVhelpful
p4747
I2147
sVlost
p4748
I2705
sVsafest
p4749
I3862
sVperpetual
p4750
I3270
sVjournalism
p4751
I2477
sVclown
p4752
I786
sVloses
p4753
I2701
sVservant
p4754
I3964
sVtribulation
p4755
I4605
sVheed
p4756
I2140
sVlose
p4757
I2699
sVnerves
p4758
I3013
sVworks
p4759
I4940
sVsoft
p4760
I4108
sVpage
p4761
I3178
sVadversity
p4762
I109
sVsign
p4763
I4035
sVamendment
p4764
I178
sVsurest
p4765
I4370
sVshed
p4766
I3998
sVunable
p4767
I4651
sVwholly
p4768
I4875
sVscared
p4769
I3897
sVunsuccessful
p4770
I4709
sVphenomena
p4771
I3294
sVsearching
p4772
I3915
sValive
p4773
I159
sVimmortal
p4774
I2277
sVhair
p4775
I2074
sVwider
p4776
I4881
sVgrowth
p4777
I2052
sVchoosing
p4778
I736
sVproper
p4779
I3523
sVfaint
p4780
I1655
sVempire
p4781
I1447
sVpeter
p4782
I3291
sVmother
p4783
I2935
sVrecognition
p4784
I3656
sVoneself
p4785
I3116
sVhappens
p4786
I2094
sVest
p4787
I1529
sVleaf
p4788
I2585
sVforgives
p4789
I1840
sVlead
p4790
I2579
sVsufficiently
p4791
I4343
sVbroad
p4792
I568
sVavoid
p4793
I357
sVlean
p4794
I2587
sVslide
p4795
I4081
sVphilosopher
p4796
I3296
sVstudents
p4797
I4307
sVdoer
p4798
I1302
sVcradle
p4799
I1009
sVdiscretion
p4800
I1264
sVwarfare
p4801
I4814
sVforgiven
p4802
I1838
sVchains
p4803
I676
sVleader
p4804
I2580
sVtrap
p4805
I4587
sVlimitations
p4806
I2652
sVseason
p4807
I3917
sVpoets
p4808
I3361
sVblowing
p4809
I498
sVmurderer
p4810
I2958
sVobey
p4811
I3069
sVproud
p4812
I3537
sVreaching
p4813
I3622
sVendeavors
p4814
I1460
sVworkers
p4815
I4938
sVpressure
p4816
I3455
sVdoctors
p4817
I1299
sVworthy
p4818
I4957
sVinstinct
p4819
I2393
sVimaginary
p4820
I2264
sVtrials
p4821
I4603
sVrefuge
p4822
I3672
sVhiding
p4823
I2160
sVgained
p4824
I1920
sVseriousness
p4825
I3963
sVsister
p4826
I4061
sVactual
p4827
I74
sVcarried
p4828
I634
sVworld
p4829
I4941
sVface
p4830
I1637
sVfollies
p4831
I1807
sVcertainty
p4832
I674
sVdependence
p4833
I1164
sVrecognized
p4834
I3658
sVcarries
p4835
I635
sVblessings
p4836
I488
sVplaces
p4837
I3322
sVhairs
p4838
I2075
sVinsufficient
p4839
I2402
sVtongue
p4840
I4547
sVglasses
p4841
I1967
sVpersuaded
p4842
I3287
sVfutility
p4843
I1916
sVswimming
p4844
I4396
sVequally
p4845
I1515
sVunfolding
p4846
I4681
sVletters
p4847
I2619
sVwilderness
p4848
I4884
sVnobody'
p4849
I3035
sVowe
p4850
I3172
sVpolitical
p4851
I3371
sVuncertain
p4852
I4656
sVrome
p4853
I3823
sVwashington
p4854
I4821
sVcommitment
p4855
I820
sVoutward
p4856
I3165
sVparliament
p4857
I3203
sVguard
p4858
I2056
sVsquare
p4859
I4202
sVpromise
p4860
I3516
sVbrush
p4861
I576
sVfemale
p4862
I1726
sVcultivated
p4863
I1051
sVroads
p4864
I3811
sVstrategy
p4865
I4274
sVmere
p4866
I2840
sVregarded
p4867
I3679
sVrejoice
p4868
I3688
sVimpatience
p4869
I2282
sVadolescent
p4870
I95
sVveil
p4871
I4750
sVmuseum
p4872
I2963
sVsupport
p4873
I4362
sVspots
p4874
I4197
sVkidding
p4875
I2507
sVintention
p4876
I2415
sVdelusions
p4877
I1149
sVinner
p4878
I2369
sVfrustration
p4879
I1900
sVbiggest
p4880
I464
sVexposure
p4881
I1614
sVnaturally
p4882
I2985
sVfunction
p4883
I1909
sVyellow
p4884
I4987
sVbuy
p4885
I601
sVnorth
p4886
I3041
sVbus
p4887
I595
sVbother
p4888
I528
sVshines
p4889
I4006
sVchildren'
p4890
I727
sVrepeated
p4891
I3723
sVconstruction
p4892
I929
sVgain
p4893
I1919
sVthreaten
p4894
I4505
sVear
p4895
I1373
sVbug
p4896
I580
sVbud
p4897
I579
sVcount
p4898
I985
sVlady
p4899
I2548
sVwise
p4900
I4906
sVevident
p4901
I1554
sVnoon
p4902
I3039
sVdangerous
p4903
I1078
sVofficial
p4904
I3105
sVgrieve
p4905
I2042
sVtriumphant
p4906
I4612
sVwarmth
p4907
I4816
sVexcitement
p4908
I1577
sVplaced
p4909
I3321
sVcruel
p4910
I1046
sVconvince
p4911
I967
sVlimit
p4912
I2651
sVwoke
p4913
I4922
sVmonument
p4914
I2922
sVproblem
p4915
I3485
sVpiece
p4916
I3310
sVminutes
p4917
I2875
sVstirring
p4918
I4254
sVmonkeys
p4919
I2916
sVdiligently
p4920
I1231
sVsettled
p4921
I3977
sVrabbits
p4922
I3595
sVentering
p4923
I1497
sVdeaths
p4924
I1098
sVfriend'
p4925
I1887
sVinadequate
p4926
I2306
sVuniversal
p4927
I4692
sVcircus
p4928
I751
sVkisses
p4929
I2524
sVmeaningless
p4930
I2809
sVpig
p4931
I3313
sVbeats
p4932
I416
sVperiods
p4933
I3262
sVaristotle
p4934
I266
sVink
p4935
I2368
sVfleeting
p4936
I1785
sVeducation
p4937
I1406
sVpit
p4938
I3317
sVeric
p4939
I1520
sVworld'
p4940
I4942
sVplanting
p4941
I3335
sVfunctions
p4942
I1910
sVcompared
p4943
I839
sVloud
p4944
I2708
sVcontest
p4945
I942
sVdressed
p4946
I1341
sVshot
p4947
I4020
sVoak
p4948
I3067
sVlonger
p4949
I2690
sVbook
p4950
I517
sVguarantee
p4951
I2054
sVdetails
p4952
I1196
sVbranch
p4953
I542
sVu
I4645
sVbehold
p4954
I434
sVillusion
p4955
I2260
sVconclusion
p4956
I875
sVjunk
p4957
I2489
sVrepeat
p4958
I3722
sVkinds
p4959
I2519
sVwaves
p4960
I4831
sVsecretly
p4961
I3923
sVwork
p4962
I4935
sVworker
p4963
I4937
sVoppression
p4964
I3136
sVnourishment
p4965
I3052
sVshown
p4966
I4025
sVstay
p4967
I4234
sVchance
p4968
I682
sVearthly
p4969
I1383
sVastronomy
p4970
I317
sVfriends
p4971
I1889
sVchristians
p4972
I743
sVcliff
p4973
I769
sVrope
p4974
I3829
sVatheist
p4975
I319
sVjewel
p4976
I2464
sVpersistent
p4977
I3276
sVrule
p4978
I3839
sVstrings
p4979
I4290
sVportion
p4980
I3382
sVwrite
p4981
I4966
sVcompete
p4982
I845
sVuneducated
p4983
I4677
sVdetermination
p4984
I1197
sVyell
p4985
I4986
sVaccidents
p4986
I33
sVexpands
p4987
I1594
sVconfess
p4988
I884
s.