ccopy_reg
_reconstructor
p0
(csklearn.decomposition.online_lda
LatentDirichletAllocation
p1
c__builtin__
object
p2
Ntp3
Rp4
(dp5
S'learning_offset'
p6
F10.0
sS'n_jobs'
p7
I1
sS'topic_word_prior'
p8
NsS'perp_tol'
p9
F0.1
sS'evaluate_every'
p10
I-1
sS'max_iter'
p11
I10
sS'mean_change_tol'
p12
F0.001
sS'batch_size'
p13
I128
sS'max_doc_update_iter'
p14
I100
sS'learning_decay'
p15
F0.7
sS'random_state'
p16
NsS'doc_topic_prior'
p17
NsS'n_topics'
p18
I20
sS'total_samples'
p19
F1000000.0
sS'learning_method'
p20
S'online'
p21
sS'verbose'
p22
I0
sb.